; Listing generated by Microsoft (R) Optimizing Compiler Version 19.13.26131.1 

	TITLE	D:\project\C++\snake\snake\snake.cpp
	.686P
	.XMM
	include listing.inc
	.model	flat

INCLUDELIB MSVCRTD
INCLUDELIB OLDNAMES

PUBLIC	??_C@_0BAB@LMILMGBN@?$AA?$AB?$AB?$AC?$AB?$AC?$AC?$AD?$AB?$AC?$AC?$AD?$AC?$AD?$AD?$AE?$AB?$AC?$AC?$AD?$AC?$AD?$AD?$AE?$AC?$AD?$AD?$AE?$AD?$AE?$AE?$AF@ ; `string'
PUBLIC	?c@@3PADA					; c
_BSS	SEGMENT
?c@@3PADA DB	01000000H DUP (?)			; c
_BSS	ENDS
;	COMDAT ??_C@_0BAB@LMILMGBN@?$AA?$AB?$AB?$AC?$AB?$AC?$AC?$AD?$AB?$AC?$AC?$AD?$AC?$AD?$AD?$AE?$AB?$AC?$AC?$AD?$AC?$AD?$AD?$AE?$AC?$AD?$AD?$AE?$AD?$AE?$AE?$AF@
CONST	SEGMENT
??_C@_0BAB@LMILMGBN@?$AA?$AB?$AB?$AC?$AB?$AC?$AC?$AD?$AB?$AC?$AC?$AD?$AC?$AD?$AD?$AE?$AB?$AC?$AC?$AD?$AC?$AD?$AD?$AE?$AC?$AD?$AD?$AE?$AD?$AE?$AE?$AF@ DB 00H
	DB	01H, 01H, 02H, 01H, 02H, 02H, 03H, 01H, 02H, 02H, 03H, 02H, 03H
	DB	03H, 04H, 01H, 02H, 02H, 03H, 02H, 03H, 03H, 04H, 02H, 03H, 03H
	DB	04H, 03H, 04H, 04H, 05H, 01H, 02H, 02H, 03H, 02H, 03H, 03H, 04H
	DB	02H, 03H, 03H, 04H, 03H, 04H, 04H, 05H, 02H, 03H, 03H, 04H, 03H
	DB	04H, 04H, 05H, 03H, 04H, 04H, 05H, 04H, 05H, 05H, 06H, 01H, 02H
	DB	02H, 03H, 02H, 03H, 03H, 04H, 02H, 03H, 03H, 04H, 03H, 04H, 04H
	DB	05H, 02H, 03H, 03H, 04H, 03H, 04H, 04H, 05H, 03H, 04H, 04H, 05H
	DB	04H, 05H, 05H, 06H, 02H, 03H, 03H, 04H, 03H, 04H, 04H, 05H, 03H
	DB	04H, 04H, 05H, 04H, 05H, 05H, 06H, 03H, 04H, 04H, 05H, 04H, 05H
	DB	05H, 06H, 04H, 05H, 05H, 06H, 05H, 06H, 06H, 07H, 01H, 02H, 02H
	DB	03H, 02H, 03H, 03H, 04H, 02H, 03H, 03H, 04H, 03H, 04H, 04H, 05H
	DB	02H, 03H, 03H, 04H, 03H, 04H, 04H, 05H, 03H, 04H, 04H, 05H, 04H
	DB	05H, 05H, 06H, 02H, 03H, 03H, 04H, 03H, 04H, 04H, 05H, 03H, 04H
	DB	04H, 05H, 04H, 05H, 05H, 06H, 03H, 04H, 04H, 05H, 04H, 05H, 05H
	DB	06H, 04H, 05H, 05H, 06H, 05H, 06H, 06H, 07H, 02H, 03H, 03H, 04H
	DB	03H, 04H, 04H, 05H, 03H, 04H, 04H, 05H, 04H, 05H, 05H, 06H, 03H
	DB	04H, 04H, 05H, 04H, 05H, 05H, 06H, 04H, 05H, 05H, 06H, 05H, 06H
	DB	06H, 07H, 03H, 04H, 04H, 05H, 04H, 05H, 05H, 06H, 04H, 05H, 05H
	DB	06H, 05H, 06H, 06H, 07H, 04H, 05H, 05H, 06H, 05H, 06H, 06H, 07H
	DB	05H, 06H, 06H, 07H, 06H, 07H, 07H, 08H, 00H	; `string'
CONST	ENDS
CONST	SEGMENT
?_Bitsperbyte@@3QBDB DD FLAT:??_C@_0BAB@LMILMGBN@?$AA?$AB?$AB?$AC?$AB?$AC?$AC?$AD?$AB?$AC?$AC?$AD?$AC?$AD?$AD?$AE?$AB?$AC?$AC?$AD?$AC?$AD?$AD?$AE?$AC?$AD?$AD?$AE?$AD?$AE?$AE?$AF@ ; _Bitsperbyte
CONST	ENDS
PUBLIC	?__empty_global_delete@@YAXPAX@Z		; __empty_global_delete
PUBLIC	?__empty_global_delete@@YAXPAXI@Z		; __empty_global_delete
PUBLIC	___local_stdio_printf_options
PUBLIC	__vfprintf_l
PUBLIC	??$__vcrt_va_start_verify_argument_type@QBD@@YAXXZ ; __vcrt_va_start_verify_argument_type<char const * const>
PUBLIC	_printf
PUBLIC	?max@?$numeric_limits@H@std@@SAHXZ		; std::numeric_limits<int>::max
PUBLIC	??2@YAPAXIPAX@Z					; operator new
PUBLIC	?copy@?$char_traits@D@std@@SAPADQADQBDI@Z	; std::char_traits<char>::copy
PUBLIC	?assign@?$char_traits@D@std@@SAXAADABD@Z	; std::char_traits<char>::assign
PUBLIC	?eq_int_type@?$char_traits@D@std@@SA_NABH0@Z	; std::char_traits<char>::eq_int_type
PUBLIC	?eof@?$char_traits@D@std@@SAHXZ			; std::char_traits<char>::eof
PUBLIC	??0_Container_proxy@std@@QAE@XZ			; std::_Container_proxy::_Container_proxy
PUBLIC	??0_Container_base12@std@@QAE@XZ		; std::_Container_base12::_Container_base12
PUBLIC	??1_Container_base12@std@@QAE@XZ		; std::_Container_base12::~_Container_base12
PUBLIC	?_Orphan_all@_Container_base12@std@@QAEXXZ	; std::_Container_base12::_Orphan_all
PUBLIC	?_Swap_all@_Container_base12@std@@QAEXAAU12@@Z	; std::_Container_base12::_Swap_all
PUBLIC	??$_Get_size_of_n@$00@std@@YAII@Z		; std::_Get_size_of_n<1>
PUBLIC	?_Allocate@_Default_allocate_traits@std@@SAPAXI@Z ; std::_Default_allocate_traits::_Allocate
PUBLIC	?_Adjust_manually_vector_aligned@std@@YAXAAPAXAAI@Z ; std::_Adjust_manually_vector_aligned
PUBLIC	??0?$allocator@D@std@@QAE@XZ			; std::allocator<char>::allocator<char>
PUBLIC	?deallocate@?$allocator@D@std@@QAEXQADI@Z	; std::allocator<char>::deallocate
PUBLIC	?allocate@?$allocator@D@std@@QAEPADI@Z		; std::allocator<char>::allocate
PUBLIC	?max_size@?$_Default_allocator_traits@V?$allocator@D@std@@@std@@SAIABV?$allocator@D@2@@Z ; std::_Default_allocator_traits<std::allocator<char> >::max_size
PUBLIC	??0?$_String_val@U?$_Simple_types@D@std@@@std@@QAE@XZ ; std::_String_val<std::_Simple_types<char> >::_String_val<std::_Simple_types<char> >
PUBLIC	?_Myptr@?$_String_val@U?$_Simple_types@D@std@@@std@@QAEPADXZ ; std::_String_val<std::_Simple_types<char> >::_Myptr
PUBLIC	?_Myptr@?$_String_val@U?$_Simple_types@D@std@@@std@@QBEPBDXZ ; std::_String_val<std::_Simple_types<char> >::_Myptr
PUBLIC	?_Large_string_engaged@?$_String_val@U?$_Simple_types@D@std@@@std@@QBE_NXZ ; std::_String_val<std::_Simple_types<char> >::_Large_string_engaged
PUBLIC	??0_Bxty@?$_String_val@U?$_Simple_types@D@std@@@std@@QAE@XZ ; std::_String_val<std::_Simple_types<char> >::_Bxty::_Bxty
PUBLIC	??1_Bxty@?$_String_val@U?$_Simple_types@D@std@@@std@@QAE@XZ ; std::_String_val<std::_Simple_types<char> >::_Bxty::~_Bxty
PUBLIC	??1?$_String_val@U?$_Simple_types@D@std@@@std@@QAE@XZ ; std::_String_val<std::_Simple_types<char> >::~_String_val<std::_Simple_types<char> >
PUBLIC	??0?$_String_alloc@U?$_String_base_types@DV?$allocator@D@std@@@std@@@std@@QAE@XZ ; std::_String_alloc<std::_String_base_types<char,std::allocator<char> > >::_String_alloc<std::_String_base_types<char,std::allocator<char> > >
PUBLIC	??1?$_String_alloc@U?$_String_base_types@DV?$allocator@D@std@@@std@@@std@@QAE@XZ ; std::_String_alloc<std::_String_base_types<char,std::allocator<char> > >::~_String_alloc<std::_String_base_types<char,std::allocator<char> > >
PUBLIC	?_Alloc_proxy@?$_String_alloc@U?$_String_base_types@DV?$allocator@D@std@@@std@@@std@@QAEXXZ ; std::_String_alloc<std::_String_base_types<char,std::allocator<char> > >::_Alloc_proxy
PUBLIC	?_Free_proxy@?$_String_alloc@U?$_String_base_types@DV?$allocator@D@std@@@std@@@std@@QAEXXZ ; std::_String_alloc<std::_String_base_types<char,std::allocator<char> > >::_Free_proxy
PUBLIC	?_Myproxy@?$_String_alloc@U?$_String_base_types@DV?$allocator@D@std@@@std@@@std@@QAEAAPAU_Container_proxy@2@XZ ; std::_String_alloc<std::_String_base_types<char,std::allocator<char> > >::_Myproxy
PUBLIC	?_Orphan_all@?$_String_alloc@U?$_String_base_types@DV?$allocator@D@std@@@std@@@std@@QAEXXZ ; std::_String_alloc<std::_String_base_types<char,std::allocator<char> > >::_Orphan_all
PUBLIC	?_Swap_all@?$_String_alloc@U?$_String_base_types@DV?$allocator@D@std@@@std@@@std@@QAEXAAV12@@Z ; std::_String_alloc<std::_String_base_types<char,std::allocator<char> > >::_Swap_all
PUBLIC	?_Getal@?$_String_alloc@U?$_String_base_types@DV?$allocator@D@std@@@std@@@std@@QAEAAV?$allocator@D@2@XZ ; std::_String_alloc<std::_String_base_types<char,std::allocator<char> > >::_Getal
PUBLIC	?_Getal@?$_String_alloc@U?$_String_base_types@DV?$allocator@D@std@@@std@@@std@@QBEABV?$allocator@D@2@XZ ; std::_String_alloc<std::_String_base_types<char,std::allocator<char> > >::_Getal
PUBLIC	?_Get_data@?$_String_alloc@U?$_String_base_types@DV?$allocator@D@std@@@std@@@std@@QAEAAV?$_String_val@U?$_Simple_types@D@std@@@2@XZ ; std::_String_alloc<std::_String_base_types<char,std::allocator<char> > >::_Get_data
PUBLIC	?_Get_data@?$_String_alloc@U?$_String_base_types@DV?$allocator@D@std@@@std@@@std@@QBEABV?$_String_val@U?$_Simple_types@D@std@@@2@XZ ; std::_String_alloc<std::_String_base_types<char,std::allocator<char> > >::_Get_data
PUBLIC	?_Get_first@?$_Compressed_pair@V?$allocator@D@std@@V?$_String_val@U?$_Simple_types@D@std@@@2@$00@std@@QAEAAV?$allocator@D@2@XZ ; std::_Compressed_pair<std::allocator<char>,std::_String_val<std::_Simple_types<char> >,1>::_Get_first
PUBLIC	?_Get_first@?$_Compressed_pair@V?$allocator@D@std@@V?$_String_val@U?$_Simple_types@D@std@@@2@$00@std@@QBEABV?$allocator@D@2@XZ ; std::_Compressed_pair<std::allocator<char>,std::_String_val<std::_Simple_types<char> >,1>::_Get_first
PUBLIC	?_Get_second@?$_Compressed_pair@V?$allocator@D@std@@V?$_String_val@U?$_Simple_types@D@std@@@2@$00@std@@QAEAAV?$_String_val@U?$_Simple_types@D@std@@@2@XZ ; std::_Compressed_pair<std::allocator<char>,std::_String_val<std::_Simple_types<char> >,1>::_Get_second
PUBLIC	?_Get_second@?$_Compressed_pair@V?$allocator@D@std@@V?$_String_val@U?$_Simple_types@D@std@@@2@$00@std@@QBEABV?$_String_val@U?$_Simple_types@D@std@@@2@XZ ; std::_Compressed_pair<std::allocator<char>,std::_String_val<std::_Simple_types<char> >,1>::_Get_second
PUBLIC	??1?$_Compressed_pair@V?$allocator@D@std@@V?$_String_val@U?$_Simple_types@D@std@@@2@$00@std@@QAE@XZ ; std::_Compressed_pair<std::allocator<char>,std::_String_val<std::_Simple_types<char> >,1>::~_Compressed_pair<std::allocator<char>,std::_String_val<std::_Simple_types<char> >,1>
PUBLIC	??0?$basic_string@DU?$char_traits@D@std@@V?$allocator@D@2@@std@@QAE@XZ ; std::basic_string<char,std::char_traits<char>,std::allocator<char> >::basic_string<char,std::char_traits<char>,std::allocator<char> >
PUBLIC	??0?$basic_string@DU?$char_traits@D@std@@V?$allocator@D@2@@std@@QAE@$$QAV01@@Z ; std::basic_string<char,std::char_traits<char>,std::allocator<char> >::basic_string<char,std::char_traits<char>,std::allocator<char> >
PUBLIC	?_Assign_rv_contents_with_alloc_always_equal@?$basic_string@DU?$char_traits@D@std@@V?$allocator@D@2@@std@@QAEX$$QAV12@U?$integral_constant@_N$00@2@@Z ; std::basic_string<char,std::char_traits<char>,std::allocator<char> >::_Assign_rv_contents_with_alloc_always_equal
PUBLIC	??1?$basic_string@DU?$char_traits@D@std@@V?$allocator@D@2@@std@@QAE@XZ ; std::basic_string<char,std::char_traits<char>,std::allocator<char> >::~basic_string<char,std::char_traits<char>,std::allocator<char> >
PUBLIC	??Y?$basic_string@DU?$char_traits@D@std@@V?$allocator@D@2@@std@@QAEAAV01@D@Z ; std::basic_string<char,std::char_traits<char>,std::allocator<char> >::operator+=
PUBLIC	?push_back@?$basic_string@DU?$char_traits@D@std@@V?$allocator@D@2@@std@@QAEXD@Z ; std::basic_string<char,std::char_traits<char>,std::allocator<char> >::push_back
PUBLIC	?data@?$basic_string@DU?$char_traits@D@std@@V?$allocator@D@2@@std@@QBEPBDXZ ; std::basic_string<char,std::char_traits<char>,std::allocator<char> >::data
PUBLIC	?size@?$basic_string@DU?$char_traits@D@std@@V?$allocator@D@2@@std@@QBEIXZ ; std::basic_string<char,std::char_traits<char>,std::allocator<char> >::size
PUBLIC	?max_size@?$basic_string@DU?$char_traits@D@std@@V?$allocator@D@2@@std@@QBEIXZ ; std::basic_string<char,std::char_traits<char>,std::allocator<char> >::max_size
PUBLIC	?reserve@?$basic_string@DU?$char_traits@D@std@@V?$allocator@D@2@@std@@QAEXI@Z ; std::basic_string<char,std::char_traits<char>,std::allocator<char> >::reserve
PUBLIC	?_Calculate_growth@?$basic_string@DU?$char_traits@D@std@@V?$allocator@D@2@@std@@QBEII@Z ; std::basic_string<char,std::char_traits<char>,std::allocator<char> >::_Calculate_growth
PUBLIC	?_Become_small@?$basic_string@DU?$char_traits@D@std@@V?$allocator@D@2@@std@@QAEXXZ ; std::basic_string<char,std::char_traits<char>,std::allocator<char> >::_Become_small
PUBLIC	?_Tidy_init@?$basic_string@DU?$char_traits@D@std@@V?$allocator@D@2@@std@@QAEXXZ ; std::basic_string<char,std::char_traits<char>,std::allocator<char> >::_Tidy_init
PUBLIC	?_Tidy_deallocate@?$basic_string@DU?$char_traits@D@std@@V?$allocator@D@2@@std@@QAEXXZ ; std::basic_string<char,std::char_traits<char>,std::allocator<char> >::_Tidy_deallocate
PUBLIC	?_Xlen@?$basic_string@DU?$char_traits@D@std@@V?$allocator@D@2@@std@@SAXXZ ; std::basic_string<char,std::char_traits<char>,std::allocator<char> >::_Xlen
PUBLIC	_main
PUBLIC	?_Subscript@?$bitset@$0BI@@std@@QBE_NI@Z	; std::bitset<24>::_Subscript
PUBLIC	??0?$bitset@$0BI@@std@@QAE@_K@Z			; std::bitset<24>::bitset<24>
PUBLIC	?test@?$bitset@$0BI@@std@@QBE_NI@Z		; std::bitset<24>::test
PUBLIC	?_Xran@?$bitset@$0BI@@std@@ABEXXZ		; std::bitset<24>::_Xran
PUBLIC	??$to_string@DU?$char_traits@D@std@@V?$allocator@D@2@@?$bitset@$0BI@@std@@QBE?AV?$basic_string@DU?$char_traits@D@std@@V?$allocator@D@2@@1@DD@Z ; std::bitset<24>::to_string<char,std::char_traits<char>,std::allocator<char> >
PUBLIC	??$?6DU?$char_traits@D@std@@V?$allocator@D@1@@std@@YAAAV?$basic_ostream@DU?$char_traits@D@std@@@0@AAV10@ABV?$basic_string@DU?$char_traits@D@std@@V?$allocator@D@2@@0@@Z ; std::operator<<<char,std::char_traits<char>,std::allocator<char> >
PUBLIC	??$?6U?$char_traits@D@std@@@std@@YAAAV?$basic_ostream@DU?$char_traits@D@std@@@0@AAV10@D@Z ; std::operator<<<std::char_traits<char> >
PUBLIC	??$_Min_value@I@std@@YAABIABI0@Z		; std::_Min_value<unsigned int>
PUBLIC	??$_Unfancy@D@std@@YAPADPAD@Z			; std::_Unfancy<char>
PUBLIC	??$move@AAV?$allocator@D@std@@@std@@YA$$QAV?$allocator@D@0@AAV10@@Z ; std::move<std::allocator<char> &>
PUBLIC	??$?0V?$allocator@D@std@@X@?$_String_alloc@U?$_String_base_types@DV?$allocator@D@std@@@std@@@std@@QAE@$$QAV?$allocator@D@1@@Z ; std::_String_alloc<std::_String_base_types<char,std::allocator<char> > >::_String_alloc<std::_String_base_types<char,std::allocator<char> > ><std::allocator<char>,void>
PUBLIC	??$move@AAV?$basic_string@DU?$char_traits@D@std@@V?$allocator@D@2@@std@@@std@@YA$$QAV?$basic_string@DU?$char_traits@D@std@@V?$allocator@D@2@@0@AAV10@@Z ; std::move<std::basic_string<char,std::char_traits<char>,std::allocator<char> > &>
PUBLIC	??$?0$$V@?$_Compressed_pair@V?$allocator@D@std@@V?$_String_val@U?$_Simple_types@D@std@@@2@$00@std@@QAE@U_Zero_then_variadic_args_t@1@@Z ; std::_Compressed_pair<std::allocator<char>,std::_String_val<std::_Simple_types<char> >,1>::_Compressed_pair<std::allocator<char>,std::_String_val<std::_Simple_types<char> >,1><>
PUBLIC	??$addressof@PAD@std@@YAPAPADAAPAD@Z		; std::addressof<char *>
PUBLIC	??$destroy@PAD@?$_Default_allocator_traits@V?$allocator@D@std@@@std@@SAXAAV?$allocator@D@1@QAPAD@Z ; std::_Default_allocator_traits<std::allocator<char> >::destroy<char *>
PUBLIC	??$_Max_value@I@std@@YAABIABI0@Z		; std::_Max_value<unsigned int>
PUBLIC	??$construct@PADABQAD@?$_Default_allocator_traits@V?$allocator@D@std@@@std@@SAXAAV?$allocator@D@1@QAPADABQAD@Z ; std::_Default_allocator_traits<std::allocator<char> >::construct<char *,char * const &>
PUBLIC	??$addressof@V?$_String_val@U?$_Simple_types@D@std@@@std@@@std@@YAPAV?$_String_val@U?$_Simple_types@D@std@@@0@AAV10@@Z ; std::addressof<std::_String_val<std::_Simple_types<char> > >
PUBLIC	??$_Allocate@$07U_Default_allocate_traits@std@@$0A@@std@@YAPAXI@Z ; std::_Allocate<8,std::_Default_allocate_traits,0>
PUBLIC	??$_Deallocate@$07$0A@@std@@YAXPAXI@Z		; std::_Deallocate<8,0>
PUBLIC	?allocate@?$allocator@U_Container_proxy@std@@@std@@QAEPAU_Container_proxy@2@I@Z ; std::allocator<std::_Container_proxy>::allocate
PUBLIC	?deallocate@?$_Default_allocator_traits@V?$allocator@U_Container_proxy@std@@@std@@@std@@SAXAAV?$allocator@U_Container_proxy@std@@@2@QAU_Container_proxy@2@I@Z ; std::_Default_allocator_traits<std::allocator<std::_Container_proxy> >::deallocate
PUBLIC	??$destroy@U_Container_proxy@std@@@?$_Default_allocator_traits@V?$allocator@U_Container_proxy@std@@@std@@@std@@SAXAAV?$allocator@U_Container_proxy@std@@@1@QAU_Container_proxy@1@@Z ; std::_Default_allocator_traits<std::allocator<std::_Container_proxy> >::destroy<std::_Container_proxy>
PUBLIC	??$_Deallocate_plain@V?$allocator@U_Container_proxy@std@@@std@@$0A@@std@@YAXAAV?$allocator@U_Container_proxy@std@@@0@QAU_Container_proxy@0@@Z ; std::_Deallocate_plain<std::allocator<std::_Container_proxy>,0>
PUBLIC	??$_Unfancy@U_Container_proxy@std@@@std@@YAPAU_Container_proxy@0@PAU10@@Z ; std::_Unfancy<std::_Container_proxy>
PUBLIC	??$construct@U_Container_proxy@std@@U12@@?$_Default_allocator_traits@V?$allocator@U_Container_proxy@std@@@std@@@std@@SAXAAV?$allocator@U_Container_proxy@std@@@1@QAU_Container_proxy@1@$$QAU31@@Z ; std::_Default_allocator_traits<std::allocator<std::_Container_proxy> >::construct<std::_Container_proxy,std::_Container_proxy>
PUBLIC	??$?0D@?$allocator@U_Container_proxy@std@@@std@@QAE@ABV?$allocator@D@1@@Z ; std::allocator<std::_Container_proxy>::allocator<std::_Container_proxy><char>
PUBLIC	??$_Get_size_of_n@$07@std@@YAII@Z		; std::_Get_size_of_n<8>
PUBLIC	??$_Insert_string@DU?$char_traits@D@std@@I@std@@YAAAV?$basic_ostream@DU?$char_traits@D@std@@@0@AAV10@QBDI@Z ; std::_Insert_string<char,std::char_traits<char>,unsigned int>
PUBLIC	??0_Sentry_base@?$basic_ostream@DU?$char_traits@D@std@@@std@@QAE@AAV12@@Z ; std::basic_ostream<char,std::char_traits<char> >::_Sentry_base::_Sentry_base
PUBLIC	??1_Sentry_base@?$basic_ostream@DU?$char_traits@D@std@@@std@@QAE@XZ ; std::basic_ostream<char,std::char_traits<char> >::_Sentry_base::~_Sentry_base
PUBLIC	??0sentry@?$basic_ostream@DU?$char_traits@D@std@@@std@@QAE@AAV12@@Z ; std::basic_ostream<char,std::char_traits<char> >::sentry::sentry
PUBLIC	??1sentry@?$basic_ostream@DU?$char_traits@D@std@@@std@@QAE@XZ ; std::basic_ostream<char,std::char_traits<char> >::sentry::~sentry
PUBLIC	??Bsentry@?$basic_ostream@DU?$char_traits@D@std@@@std@@QBE_NXZ ; std::basic_ostream<char,std::char_traits<char> >::sentry::operator bool
PUBLIC	??$forward@V?$allocator@D@std@@@std@@YA$$QAV?$allocator@D@0@AAV10@@Z ; std::forward<std::allocator<char> >
PUBLIC	??$?0V?$allocator@D@std@@$$V@?$_Compressed_pair@V?$allocator@D@std@@V?$_String_val@U?$_Simple_types@D@std@@@2@$00@std@@QAE@U_One_then_variadic_args_t@1@$$QAV?$allocator@D@1@@Z ; std::_Compressed_pair<std::allocator<char>,std::_String_val<std::_Simple_types<char> >,1>::_Compressed_pair<std::allocator<char>,std::_String_val<std::_Simple_types<char> >,1><std::allocator<char> >
PUBLIC	??$forward@ABQAD@std@@YAABQADABQAD@Z		; std::forward<char * const &>
PUBLIC	??$_Allocate_manually_vector_aligned@U_Default_allocate_traits@std@@@std@@YAPAXI@Z ; std::_Allocate_manually_vector_aligned<std::_Default_allocate_traits>
PUBLIC	??$forward@U_Container_proxy@std@@@std@@YA$$QAU_Container_proxy@0@AAU10@@Z ; std::forward<std::_Container_proxy>
PUBLIC	?_OptionsStorage@?1??__local_stdio_printf_options@@9@4_KA ; `__local_stdio_printf_options'::`2'::_OptionsStorage
PUBLIC	?__LINE__Var@?0??_Adjust_manually_vector_aligned@std@@YAXAAPAXAAI@Z@4JA ; `std::_Adjust_manually_vector_aligned'::`1'::__LINE__Var
PUBLIC	??_C@_1NC@HABIDIJF@?$AAc?$AA?3?$AA?2?$AAp?$AAr?$AAo?$AAg?$AAr?$AAa?$AAm?$AA?5?$AAf?$AAi?$AAl?$AAe?$AAs?$AA?5?$AA?$CI?$AAx?$AA8?$AA6?$AA?$CJ?$AA?2?$AAm?$AAi?$AAc?$AAr?$AAo?$AAs?$AAo?$AAf?$AAt@ ; `string'
PUBLIC	??_C@_1EK@NIFDJFDG@?$AAs?$AAt?$AAd?$AA?3?$AA?3?$AA_?$AAA?$AAd?$AAj?$AAu?$AAs?$AAt?$AA_?$AAm?$AAa?$AAn?$AAu?$AAa?$AAl?$AAl?$AAy?$AA_?$AAv?$AAe?$AAc?$AAt?$AAo?$AAr?$AA_?$AAa?$AAl?$AAi@ ; `string'
PUBLIC	??_C@_1CG@JNLFBNGN@?$AA?$CC?$AAi?$AAn?$AAv?$AAa?$AAl?$AAi?$AAd?$AA?5?$AAa?$AAr?$AAg?$AAu?$AAm?$AAe?$AAn?$AAt?$AA?$CC?$AA?$AA@ ; `string'
PUBLIC	??_C@_0BB@CNIPENPK@?$CF16lld?$KG?$LD?$CF3d?$KN?S?81?8?$AA@ ; `string'
PUBLIC	??_C@_0BF@PNGEBNIG@?$KK?a?$KEF?$CF3d?$KE?$MA?$CF3d?4?$CF03d?$KM?m?5?$AA@ ; `string'
PUBLIC	??_C@_05PDJBBECF@pause?$AA@			; `string'
PUBLIC	??_C@_0BA@JFNIOLAK@string?5too?5long?$AA@	; `string'
PUBLIC	??_C@_0BL@HMFHJKFH@invalid?5bitset?$DMN?$DO?5position?$AA@ ; `string'
PUBLIC	??_C@_0BE@LMNLACIC@_Ptr_container?5?$CB?$DN?50?$AA@ ; `string'
PUBLIC	??_C@_1DG@HGDKEBPG@?$AA?$CC?$AA_?$AAP?$AAt?$AAr?$AA_?$AAc?$AAo?$AAn?$AAt?$AAa?$AAi?$AAn?$AAe?$AAr?$AA?5?$AA?$CB?$AA?$DN?$AA?5?$AA0?$AA?$CC?$AA?5?$AA?$CG?$AA?$CG?$AA?5?$AA0?$AA?$AA@ ; `string'
PUBLIC	??_C@_17CNPHIMPH@?$AA?$CF?$AAl?$AAs?$AA?$AA@	; `string'
PUBLIC	??_C@_1EO@GFNCMDLA@?$AAs?$AAt?$AAd?$AA?3?$AA?3?$AA_?$AAA?$AAl?$AAl?$AAo?$AAc?$AAa?$AAt?$AAe?$AA_?$AAm?$AAa?$AAn?$AAu?$AAa?$AAl?$AAl?$AAy?$AA_?$AAv?$AAe?$AAc?$AAt?$AAo?$AAr?$AA_?$AAa@ ; `string'
EXTRN	??2@YAPAXI@Z:PROC				; operator new
EXTRN	??3@YAXPAXI@Z:PROC				; operator delete
EXTRN	__imp___invalid_parameter:PROC
EXTRN	__imp____acrt_iob_func:PROC
EXTRN	__imp____stdio_common_vfprintf:PROC
EXTRN	_memcpy:PROC
EXTRN	__imp_??0_Lockit@std@@QAE@H@Z:PROC
EXTRN	__imp_??1_Lockit@std@@QAE@XZ:PROC
EXTRN	__imp__system:PROC
EXTRN	?uncaught_exceptions@std@@YAHXZ:PROC		; std::uncaught_exceptions
EXTRN	__imp___CrtDbgReportW:PROC
EXTRN	?_Xlength_error@std@@YAXPBD@Z:PROC		; std::_Xlength_error
EXTRN	?_Xout_of_range@std@@YAXPBD@Z:PROC		; std::_Xout_of_range
EXTRN	__imp_?good@ios_base@std@@QBE_NXZ:PROC
EXTRN	__imp_?flags@ios_base@std@@QBEHXZ:PROC
EXTRN	__imp_?width@ios_base@std@@QBE_JXZ:PROC
EXTRN	__imp_?width@ios_base@std@@QAE_J_J@Z:PROC
EXTRN	__imp_?sputc@?$basic_streambuf@DU?$char_traits@D@std@@@std@@QAEHD@Z:PROC
EXTRN	__imp_?sputn@?$basic_streambuf@DU?$char_traits@D@std@@@std@@QAE_JPBD_J@Z:PROC
EXTRN	__imp_?setstate@?$basic_ios@DU?$char_traits@D@std@@@std@@QAEXH_N@Z:PROC
EXTRN	__imp_?tie@?$basic_ios@DU?$char_traits@D@std@@@std@@QBEPAV?$basic_ostream@DU?$char_traits@D@std@@@2@XZ:PROC
EXTRN	__imp_?rdbuf@?$basic_ios@DU?$char_traits@D@std@@@std@@QBEPAV?$basic_streambuf@DU?$char_traits@D@std@@@2@XZ:PROC
EXTRN	__imp_?fill@?$basic_ios@DU?$char_traits@D@std@@@std@@QBEDXZ:PROC
EXTRN	__imp_?_Osfx@?$basic_ostream@DU?$char_traits@D@std@@@std@@QAEXXZ:PROC
EXTRN	__imp_?flush@?$basic_ostream@DU?$char_traits@D@std@@@std@@QAEAAV12@XZ:PROC
EXTRN	__imp__clock:PROC
EXTRN	__imp___time64:PROC
EXTRN	@_RTC_CheckStackVars@8:PROC
EXTRN	@__security_check_cookie@4:PROC
EXTRN	__RTC_CheckEsp:PROC
EXTRN	__RTC_InitBase:PROC
EXTRN	__RTC_Shutdown:PROC
EXTRN	___CxxFrameHandler3:PROC
EXTRN	__alldiv:PROC
EXTRN	__allmul:PROC
EXTRN	__imp_?cout@std@@3V?$basic_ostream@DU?$char_traits@D@std@@@1@A:BYTE
EXTRN	___security_cookie:DWORD
;	COMDAT ?_OptionsStorage@?1??__local_stdio_printf_options@@9@4_KA
_BSS	SEGMENT
?_OptionsStorage@?1??__local_stdio_printf_options@@9@4_KA DQ 01H DUP (?) ; `__local_stdio_printf_options'::`2'::_OptionsStorage
_BSS	ENDS
;	COMDAT rtc$TMZ
rtc$TMZ	SEGMENT
__RTC_Shutdown.rtc$TMZ DD FLAT:__RTC_Shutdown
rtc$TMZ	ENDS
;	COMDAT rtc$IMZ
rtc$IMZ	SEGMENT
__RTC_InitBase.rtc$IMZ DD FLAT:__RTC_InitBase
rtc$IMZ	ENDS
;	COMDAT ??_C@_1EO@GFNCMDLA@?$AAs?$AAt?$AAd?$AA?3?$AA?3?$AA_?$AAA?$AAl?$AAl?$AAo?$AAc?$AAa?$AAt?$AAe?$AA_?$AAm?$AAa?$AAn?$AAu?$AAa?$AAl?$AAl?$AAy?$AA_?$AAv?$AAe?$AAc?$AAt?$AAo?$AAr?$AA_?$AAa@
CONST	SEGMENT
??_C@_1EO@GFNCMDLA@?$AAs?$AAt?$AAd?$AA?3?$AA?3?$AA_?$AAA?$AAl?$AAl?$AAo?$AAc?$AAa?$AAt?$AAe?$AA_?$AAm?$AAa?$AAn?$AAu?$AAa?$AAl?$AAl?$AAy?$AA_?$AAv?$AAe?$AAc?$AAt?$AAo?$AAr?$AA_?$AAa@ DB 's'
	DB	00H, 't', 00H, 'd', 00H, ':', 00H, ':', 00H, '_', 00H, 'A', 00H
	DB	'l', 00H, 'l', 00H, 'o', 00H, 'c', 00H, 'a', 00H, 't', 00H, 'e'
	DB	00H, '_', 00H, 'm', 00H, 'a', 00H, 'n', 00H, 'u', 00H, 'a', 00H
	DB	'l', 00H, 'l', 00H, 'y', 00H, '_', 00H, 'v', 00H, 'e', 00H, 'c'
	DB	00H, 't', 00H, 'o', 00H, 'r', 00H, '_', 00H, 'a', 00H, 'l', 00H
	DB	'i', 00H, 'g', 00H, 'n', 00H, 'e', 00H, 'd', 00H, 00H, 00H ; `string'
CONST	ENDS
;	COMDAT ??_C@_17CNPHIMPH@?$AA?$CF?$AAl?$AAs?$AA?$AA@
CONST	SEGMENT
??_C@_17CNPHIMPH@?$AA?$CF?$AAl?$AAs?$AA?$AA@ DB '%', 00H, 'l', 00H, 's', 00H
	DB	00H, 00H					; `string'
CONST	ENDS
;	COMDAT ??_C@_1DG@HGDKEBPG@?$AA?$CC?$AA_?$AAP?$AAt?$AAr?$AA_?$AAc?$AAo?$AAn?$AAt?$AAa?$AAi?$AAn?$AAe?$AAr?$AA?5?$AA?$CB?$AA?$DN?$AA?5?$AA0?$AA?$CC?$AA?5?$AA?$CG?$AA?$CG?$AA?5?$AA0?$AA?$AA@
CONST	SEGMENT
??_C@_1DG@HGDKEBPG@?$AA?$CC?$AA_?$AAP?$AAt?$AAr?$AA_?$AAc?$AAo?$AAn?$AAt?$AAa?$AAi?$AAn?$AAe?$AAr?$AA?5?$AA?$CB?$AA?$DN?$AA?5?$AA0?$AA?$CC?$AA?5?$AA?$CG?$AA?$CG?$AA?5?$AA0?$AA?$AA@ DB '"'
	DB	00H, '_', 00H, 'P', 00H, 't', 00H, 'r', 00H, '_', 00H, 'c', 00H
	DB	'o', 00H, 'n', 00H, 't', 00H, 'a', 00H, 'i', 00H, 'n', 00H, 'e'
	DB	00H, 'r', 00H, ' ', 00H, '!', 00H, '=', 00H, ' ', 00H, '0', 00H
	DB	'"', 00H, ' ', 00H, '&', 00H, '&', 00H, ' ', 00H, '0', 00H, 00H
	DB	00H						; `string'
CONST	ENDS
;	COMDAT ??_C@_0BE@LMNLACIC@_Ptr_container?5?$CB?$DN?50?$AA@
CONST	SEGMENT
??_C@_0BE@LMNLACIC@_Ptr_container?5?$CB?$DN?50?$AA@ DB '_Ptr_container !='
	DB	' 0', 00H					; `string'
CONST	ENDS
;	COMDAT ??_C@_0BL@HMFHJKFH@invalid?5bitset?$DMN?$DO?5position?$AA@
CONST	SEGMENT
??_C@_0BL@HMFHJKFH@invalid?5bitset?$DMN?$DO?5position?$AA@ DB 'invalid bi'
	DB	'tset<N> position', 00H			; `string'
CONST	ENDS
;	COMDAT ??_C@_0BA@JFNIOLAK@string?5too?5long?$AA@
CONST	SEGMENT
??_C@_0BA@JFNIOLAK@string?5too?5long?$AA@ DB 'string too long', 00H ; `string'
CONST	ENDS
;	COMDAT ??_C@_05PDJBBECF@pause?$AA@
CONST	SEGMENT
??_C@_05PDJBBECF@pause?$AA@ DB 'pause', 00H		; `string'
CONST	ENDS
;	COMDAT ??_C@_0BF@PNGEBNIG@?$KK?a?$KEF?$CF3d?$KE?$MA?$CF3d?4?$CF03d?$KM?m?5?$AA@
CONST	SEGMENT
??_C@_0BF@PNGEBNIG@?$KK?a?$KEF?$CF3d?$KE?$MA?$CF3d?4?$CF03d?$KM?m?5?$AA@ DB 0aaH
	DB	0e1H, 0a4H, 'F%3d', 0a4H, 0c0H, '%3d.%03d', 0acH, 0edH, ' ', 00H ; `string'
CONST	ENDS
;	COMDAT ??_C@_0BB@CNIPENPK@?$CF16lld?$KG?$LD?$CF3d?$KN?S?81?8?$AA@
CONST	SEGMENT
??_C@_0BB@CNIPENPK@?$CF16lld?$KG?$LD?$CF3d?$KN?S?81?8?$AA@ DB '%16lld', 0a6H
	DB	0b3H, '%3d', 0adH, 0d3H, '''1''', 00H	; `string'
CONST	ENDS
;	COMDAT ??_C@_1CG@JNLFBNGN@?$AA?$CC?$AAi?$AAn?$AAv?$AAa?$AAl?$AAi?$AAd?$AA?5?$AAa?$AAr?$AAg?$AAu?$AAm?$AAe?$AAn?$AAt?$AA?$CC?$AA?$AA@
CONST	SEGMENT
??_C@_1CG@JNLFBNGN@?$AA?$CC?$AAi?$AAn?$AAv?$AAa?$AAl?$AAi?$AAd?$AA?5?$AAa?$AAr?$AAg?$AAu?$AAm?$AAe?$AAn?$AAt?$AA?$CC?$AA?$AA@ DB '"'
	DB	00H, 'i', 00H, 'n', 00H, 'v', 00H, 'a', 00H, 'l', 00H, 'i', 00H
	DB	'd', 00H, ' ', 00H, 'a', 00H, 'r', 00H, 'g', 00H, 'u', 00H, 'm'
	DB	00H, 'e', 00H, 'n', 00H, 't', 00H, '"', 00H, 00H, 00H ; `string'
CONST	ENDS
;	COMDAT ??_C@_1EK@NIFDJFDG@?$AAs?$AAt?$AAd?$AA?3?$AA?3?$AA_?$AAA?$AAd?$AAj?$AAu?$AAs?$AAt?$AA_?$AAm?$AAa?$AAn?$AAu?$AAa?$AAl?$AAl?$AAy?$AA_?$AAv?$AAe?$AAc?$AAt?$AAo?$AAr?$AA_?$AAa?$AAl?$AAi@
CONST	SEGMENT
??_C@_1EK@NIFDJFDG@?$AAs?$AAt?$AAd?$AA?3?$AA?3?$AA_?$AAA?$AAd?$AAj?$AAu?$AAs?$AAt?$AA_?$AAm?$AAa?$AAn?$AAu?$AAa?$AAl?$AAl?$AAy?$AA_?$AAv?$AAe?$AAc?$AAt?$AAo?$AAr?$AA_?$AAa?$AAl?$AAi@ DB 's'
	DB	00H, 't', 00H, 'd', 00H, ':', 00H, ':', 00H, '_', 00H, 'A', 00H
	DB	'd', 00H, 'j', 00H, 'u', 00H, 's', 00H, 't', 00H, '_', 00H, 'm'
	DB	00H, 'a', 00H, 'n', 00H, 'u', 00H, 'a', 00H, 'l', 00H, 'l', 00H
	DB	'y', 00H, '_', 00H, 'v', 00H, 'e', 00H, 'c', 00H, 't', 00H, 'o'
	DB	00H, 'r', 00H, '_', 00H, 'a', 00H, 'l', 00H, 'i', 00H, 'g', 00H
	DB	'n', 00H, 'e', 00H, 'd', 00H, 00H, 00H	; `string'
CONST	ENDS
;	COMDAT ??_C@_1NC@HABIDIJF@?$AAc?$AA?3?$AA?2?$AAp?$AAr?$AAo?$AAg?$AAr?$AAa?$AAm?$AA?5?$AAf?$AAi?$AAl?$AAe?$AAs?$AA?5?$AA?$CI?$AAx?$AA8?$AA6?$AA?$CJ?$AA?2?$AAm?$AAi?$AAc?$AAr?$AAo?$AAs?$AAo?$AAf?$AAt@
CONST	SEGMENT
??_C@_1NC@HABIDIJF@?$AAc?$AA?3?$AA?2?$AAp?$AAr?$AAo?$AAg?$AAr?$AAa?$AAm?$AA?5?$AAf?$AAi?$AAl?$AAe?$AAs?$AA?5?$AA?$CI?$AAx?$AA8?$AA6?$AA?$CJ?$AA?2?$AAm?$AAi?$AAc?$AAr?$AAo?$AAs?$AAo?$AAf?$AAt@ DB 'c'
	DB	00H, ':', 00H, '\', 00H, 'p', 00H, 'r', 00H, 'o', 00H, 'g', 00H
	DB	'r', 00H, 'a', 00H, 'm', 00H, ' ', 00H, 'f', 00H, 'i', 00H, 'l'
	DB	00H, 'e', 00H, 's', 00H, ' ', 00H, '(', 00H, 'x', 00H, '8', 00H
	DB	'6', 00H, ')', 00H, '\', 00H, 'm', 00H, 'i', 00H, 'c', 00H, 'r'
	DB	00H, 'o', 00H, 's', 00H, 'o', 00H, 'f', 00H, 't', 00H, ' ', 00H
	DB	'v', 00H, 'i', 00H, 's', 00H, 'u', 00H, 'a', 00H, 'l', 00H, ' '
	DB	00H, 's', 00H, 't', 00H, 'u', 00H, 'd', 00H, 'i', 00H, 'o', 00H
	DB	'\', 00H, '2', 00H, '0', 00H, '1', 00H, '7', 00H, '\', 00H, 'c'
	DB	00H, 'o', 00H, 'm', 00H, 'm', 00H, 'u', 00H, 'n', 00H, 'i', 00H
	DB	't', 00H, 'y', 00H, '\', 00H, 'v', 00H, 'c', 00H, '\', 00H, 't'
	DB	00H, 'o', 00H, 'o', 00H, 'l', 00H, 's', 00H, '\', 00H, 'm', 00H
	DB	's', 00H, 'v', 00H, 'c', 00H, '\', 00H, '1', 00H, '4', 00H, '.'
	DB	00H, '1', 00H, '3', 00H, '.', 00H, '2', 00H, '6', 00H, '1', 00H
	DB	'2', 00H, '8', 00H, '\', 00H, 'i', 00H, 'n', 00H, 'c', 00H, 'l'
	DB	00H, 'u', 00H, 'd', 00H, 'e', 00H, '\', 00H, 'x', 00H, 'm', 00H
	DB	'e', 00H, 'm', 00H, 'o', 00H, 'r', 00H, 'y', 00H, '0', 00H, 00H
	DB	00H						; `string'
CONST	ENDS
;	COMDAT ?__LINE__Var@?0??_Adjust_manually_vector_aligned@std@@YAXAAPAXAAI@Z@4JA
_DATA	SEGMENT
?__LINE__Var@?0??_Adjust_manually_vector_aligned@std@@YAXAAPAXAAI@Z@4JA DD 073H ; `std::_Adjust_manually_vector_aligned'::`1'::__LINE__Var
_DATA	ENDS
;	COMDAT xdata$x
xdata$x	SEGMENT
__ehfuncinfo$??1sentry@?$basic_ostream@DU?$char_traits@D@std@@@std@@QAE@XZ DD 019930522H
	DD	00H
	DD	00H
	DD	2 DUP(00H)
	DD	2 DUP(00H)
	DD	00H
	DD	05H
xdata$x	ENDS
;	COMDAT xdata$x
xdata$x	SEGMENT
__unwindtable$??0sentry@?$basic_ostream@DU?$char_traits@D@std@@@std@@QAE@AAV12@@Z DD 0ffffffffH
	DD	FLAT:__unwindfunclet$??0sentry@?$basic_ostream@DU?$char_traits@D@std@@@std@@QAE@AAV12@@Z$0
__ehfuncinfo$??0sentry@?$basic_ostream@DU?$char_traits@D@std@@@std@@QAE@AAV12@@Z DD 019930522H
	DD	01H
	DD	FLAT:__unwindtable$??0sentry@?$basic_ostream@DU?$char_traits@D@std@@@std@@QAE@AAV12@@Z
	DD	2 DUP(00H)
	DD	2 DUP(00H)
	DD	00H
	DD	01H
xdata$x	ENDS
;	COMDAT xdata$x
xdata$x	SEGMENT
__ehfuncinfo$??1_Sentry_base@?$basic_ostream@DU?$char_traits@D@std@@@std@@QAE@XZ DD 019930522H
	DD	00H
	DD	00H
	DD	2 DUP(00H)
	DD	2 DUP(00H)
	DD	00H
	DD	05H
xdata$x	ENDS
;	COMDAT xdata$x
xdata$x	SEGMENT
__catchsym$??$_Insert_string@DU?$char_traits@D@std@@I@std@@YAAAV?$basic_ostream@DU?$char_traits@D@std@@@0@AAV10@QBDI@Z$3 DD 040H
	DD	00H
	DD	00H
	DD	FLAT:__catch$??$_Insert_string@DU?$char_traits@D@std@@I@std@@YAAAV?$basic_ostream@DU?$char_traits@D@std@@@0@AAV10@QBDI@Z$0
__tryblocktable$??$_Insert_string@DU?$char_traits@D@std@@I@std@@YAAAV?$basic_ostream@DU?$char_traits@D@std@@@0@AAV10@QBDI@Z DD 01H
	DD	01H
	DD	02H
	DD	01H
	DD	FLAT:__catchsym$??$_Insert_string@DU?$char_traits@D@std@@I@std@@YAAAV?$basic_ostream@DU?$char_traits@D@std@@@0@AAV10@QBDI@Z$3
__unwindtable$??$_Insert_string@DU?$char_traits@D@std@@I@std@@YAAAV?$basic_ostream@DU?$char_traits@D@std@@@0@AAV10@QBDI@Z DD 0ffffffffH
	DD	FLAT:__unwindfunclet$??$_Insert_string@DU?$char_traits@D@std@@I@std@@YAAAV?$basic_ostream@DU?$char_traits@D@std@@@0@AAV10@QBDI@Z$2
	DD	00H
	DD	00H
	DD	00H
	DD	00H
__ehfuncinfo$??$_Insert_string@DU?$char_traits@D@std@@I@std@@YAAAV?$basic_ostream@DU?$char_traits@D@std@@@0@AAV10@QBDI@Z DD 019930522H
	DD	03H
	DD	FLAT:__unwindtable$??$_Insert_string@DU?$char_traits@D@std@@I@std@@YAAAV?$basic_ostream@DU?$char_traits@D@std@@@0@AAV10@QBDI@Z
	DD	01H
	DD	FLAT:__tryblocktable$??$_Insert_string@DU?$char_traits@D@std@@I@std@@YAAAV?$basic_ostream@DU?$char_traits@D@std@@@0@AAV10@QBDI@Z
	DD	2 DUP(00H)
	DD	00H
	DD	01H
xdata$x	ENDS
;	COMDAT xdata$x
xdata$x	SEGMENT
__unwindtable$??$?0V?$allocator@D@std@@X@?$_String_alloc@U?$_String_base_types@DV?$allocator@D@std@@@std@@@std@@QAE@$$QAV?$allocator@D@1@@Z DD 0ffffffffH
	DD	FLAT:__unwindfunclet$??$?0V?$allocator@D@std@@X@?$_String_alloc@U?$_String_base_types@DV?$allocator@D@std@@@std@@@std@@QAE@$$QAV?$allocator@D@1@@Z$0
__ehfuncinfo$??$?0V?$allocator@D@std@@X@?$_String_alloc@U?$_String_base_types@DV?$allocator@D@std@@@std@@@std@@QAE@$$QAV?$allocator@D@1@@Z DD 019930522H
	DD	01H
	DD	FLAT:__unwindtable$??$?0V?$allocator@D@std@@X@?$_String_alloc@U?$_String_base_types@DV?$allocator@D@std@@@std@@@std@@QAE@$$QAV?$allocator@D@1@@Z
	DD	2 DUP(00H)
	DD	2 DUP(00H)
	DD	00H
	DD	01H
xdata$x	ENDS
;	COMDAT xdata$x
xdata$x	SEGMENT
__catchsym$??$?6U?$char_traits@D@std@@@std@@YAAAV?$basic_ostream@DU?$char_traits@D@std@@@0@AAV10@D@Z$3 DD 040H
	DD	00H
	DD	00H
	DD	FLAT:__catch$??$?6U?$char_traits@D@std@@@std@@YAAAV?$basic_ostream@DU?$char_traits@D@std@@@0@AAV10@D@Z$0
__tryblocktable$??$?6U?$char_traits@D@std@@@std@@YAAAV?$basic_ostream@DU?$char_traits@D@std@@@0@AAV10@D@Z DD 01H
	DD	01H
	DD	02H
	DD	01H
	DD	FLAT:__catchsym$??$?6U?$char_traits@D@std@@@std@@YAAAV?$basic_ostream@DU?$char_traits@D@std@@@0@AAV10@D@Z$3
__unwindtable$??$?6U?$char_traits@D@std@@@std@@YAAAV?$basic_ostream@DU?$char_traits@D@std@@@0@AAV10@D@Z DD 0ffffffffH
	DD	FLAT:__unwindfunclet$??$?6U?$char_traits@D@std@@@std@@YAAAV?$basic_ostream@DU?$char_traits@D@std@@@0@AAV10@D@Z$2
	DD	00H
	DD	00H
	DD	00H
	DD	00H
__ehfuncinfo$??$?6U?$char_traits@D@std@@@std@@YAAAV?$basic_ostream@DU?$char_traits@D@std@@@0@AAV10@D@Z DD 019930522H
	DD	03H
	DD	FLAT:__unwindtable$??$?6U?$char_traits@D@std@@@std@@YAAAV?$basic_ostream@DU?$char_traits@D@std@@@0@AAV10@D@Z
	DD	01H
	DD	FLAT:__tryblocktable$??$?6U?$char_traits@D@std@@@std@@YAAAV?$basic_ostream@DU?$char_traits@D@std@@@0@AAV10@D@Z
	DD	2 DUP(00H)
	DD	00H
	DD	01H
xdata$x	ENDS
;	COMDAT xdata$x
xdata$x	SEGMENT
__unwindtable$??$to_string@DU?$char_traits@D@std@@V?$allocator@D@2@@?$bitset@$0BI@@std@@QBE?AV?$basic_string@DU?$char_traits@D@std@@V?$allocator@D@2@@1@DD@Z DD 0ffffffffH
	DD	FLAT:__unwindfunclet$??$to_string@DU?$char_traits@D@std@@V?$allocator@D@2@@?$bitset@$0BI@@std@@QBE?AV?$basic_string@DU?$char_traits@D@std@@V?$allocator@D@2@@1@DD@Z$0
__ehfuncinfo$??$to_string@DU?$char_traits@D@std@@V?$allocator@D@2@@?$bitset@$0BI@@std@@QBE?AV?$basic_string@DU?$char_traits@D@std@@V?$allocator@D@2@@1@DD@Z DD 019930522H
	DD	01H
	DD	FLAT:__unwindtable$??$to_string@DU?$char_traits@D@std@@V?$allocator@D@2@@?$bitset@$0BI@@std@@QBE?AV?$basic_string@DU?$char_traits@D@std@@V?$allocator@D@2@@1@DD@Z
	DD	2 DUP(00H)
	DD	2 DUP(00H)
	DD	00H
	DD	01H
xdata$x	ENDS
;	COMDAT xdata$x
xdata$x	SEGMENT
__unwindtable$_main DD 0ffffffffH
	DD	FLAT:__unwindfunclet$_main$0
	DD	00H
	DD	FLAT:__unwindfunclet$_main$1
__ehfuncinfo$_main DD 019930522H
	DD	02H
	DD	FLAT:__unwindtable$_main
	DD	2 DUP(00H)
	DD	2 DUP(00H)
	DD	00H
	DD	01H
xdata$x	ENDS
;	COMDAT xdata$x
xdata$x	SEGMENT
__ehfuncinfo$?data@?$basic_string@DU?$char_traits@D@std@@V?$allocator@D@2@@std@@QBEPBDXZ DD 019930522H
	DD	00H
	DD	00H
	DD	2 DUP(00H)
	DD	2 DUP(00H)
	DD	00H
	DD	05H
xdata$x	ENDS
;	COMDAT xdata$x
xdata$x	SEGMENT
__ehfuncinfo$??1?$basic_string@DU?$char_traits@D@std@@V?$allocator@D@2@@std@@QAE@XZ DD 019930522H
	DD	00H
	DD	00H
	DD	2 DUP(00H)
	DD	2 DUP(00H)
	DD	00H
	DD	05H
xdata$x	ENDS
;	COMDAT xdata$x
xdata$x	SEGMENT
__ehfuncinfo$?_Assign_rv_contents_with_alloc_always_equal@?$basic_string@DU?$char_traits@D@std@@V?$allocator@D@2@@std@@QAEX$$QAV12@U?$integral_constant@_N$00@2@@Z DD 019930522H
	DD	00H
	DD	00H
	DD	2 DUP(00H)
	DD	2 DUP(00H)
	DD	00H
	DD	05H
xdata$x	ENDS
;	COMDAT xdata$x
xdata$x	SEGMENT
__ehfuncinfo$??0?$basic_string@DU?$char_traits@D@std@@V?$allocator@D@2@@std@@QAE@$$QAV01@@Z DD 019930522H
	DD	00H
	DD	00H
	DD	2 DUP(00H)
	DD	2 DUP(00H)
	DD	00H
	DD	05H
xdata$x	ENDS
;	COMDAT xdata$x
xdata$x	SEGMENT
__ehfuncinfo$??0?$basic_string@DU?$char_traits@D@std@@V?$allocator@D@2@@std@@QAE@XZ DD 019930522H
	DD	00H
	DD	00H
	DD	2 DUP(00H)
	DD	2 DUP(00H)
	DD	00H
	DD	05H
xdata$x	ENDS
;	COMDAT xdata$x
xdata$x	SEGMENT
__ehfuncinfo$??1?$_String_alloc@U?$_String_base_types@DV?$allocator@D@std@@@std@@@std@@QAE@XZ DD 019930522H
	DD	00H
	DD	00H
	DD	2 DUP(00H)
	DD	2 DUP(00H)
	DD	00H
	DD	05H
xdata$x	ENDS
;	COMDAT xdata$x
xdata$x	SEGMENT
__unwindtable$??0?$_String_alloc@U?$_String_base_types@DV?$allocator@D@std@@@std@@@std@@QAE@XZ DD 0ffffffffH
	DD	FLAT:__unwindfunclet$??0?$_String_alloc@U?$_String_base_types@DV?$allocator@D@std@@@std@@@std@@QAE@XZ$0
__ehfuncinfo$??0?$_String_alloc@U?$_String_base_types@DV?$allocator@D@std@@@std@@@std@@QAE@XZ DD 019930522H
	DD	01H
	DD	FLAT:__unwindtable$??0?$_String_alloc@U?$_String_base_types@DV?$allocator@D@std@@@std@@@std@@QAE@XZ
	DD	2 DUP(00H)
	DD	2 DUP(00H)
	DD	00H
	DD	01H
xdata$x	ENDS
;	COMDAT xdata$x
xdata$x	SEGMENT
__unwindtable$??0?$_String_val@U?$_Simple_types@D@std@@@std@@QAE@XZ DD 0ffffffffH
	DD	FLAT:__unwindfunclet$??0?$_String_val@U?$_Simple_types@D@std@@@std@@QAE@XZ$0
__ehfuncinfo$??0?$_String_val@U?$_Simple_types@D@std@@@std@@QAE@XZ DD 019930522H
	DD	01H
	DD	FLAT:__unwindtable$??0?$_String_val@U?$_Simple_types@D@std@@@std@@QAE@XZ
	DD	2 DUP(00H)
	DD	2 DUP(00H)
	DD	00H
	DD	01H
xdata$x	ENDS
;	COMDAT xdata$x
xdata$x	SEGMENT
__ehfuncinfo$?_Swap_all@_Container_base12@std@@QAEXAAU12@@Z DD 019930522H
	DD	00H
	DD	00H
	DD	2 DUP(00H)
	DD	2 DUP(00H)
	DD	00H
	DD	05H
xdata$x	ENDS
;	COMDAT xdata$x
xdata$x	SEGMENT
__ehfuncinfo$?_Orphan_all@_Container_base12@std@@QAEXXZ DD 019930522H
	DD	00H
	DD	00H
	DD	2 DUP(00H)
	DD	2 DUP(00H)
	DD	00H
	DD	05H
xdata$x	ENDS
; Function compile flags: /Odtp /RTCsu /ZI
;	COMDAT ??$_Reallocate_grow_by@V<lambda_67d87d4aa1269033985980465fd1d824>@@$$V@?$basic_string@DU?$char_traits@D@std@@V?$allocator@D@2@@std@@QAEAAV01@IV<lambda_67d87d4aa1269033985980465fd1d824>@@@Z
_TEXT	SEGMENT
__Old_ptr$1 = -120					; size = 4
__Raw_new$ = -108					; size = 4
__New_ptr$ = -96					; size = 4
__Al$ = -84						; size = 4
__New_capacity$ = -72					; size = 4
__Old_capacity$ = -60					; size = 4
__New_size$ = -48					; size = 4
__Old_size$ = -36					; size = 4
__My_data$ = -24					; size = 4
_this$ = -12						; size = 4
__$ArrayPad$ = -4					; size = 4
__Size_increase$ = 8					; size = 4
__Fn$ = 12						; size = 1
??$_Reallocate_grow_by@V<lambda_67d87d4aa1269033985980465fd1d824>@@$$V@?$basic_string@DU?$char_traits@D@std@@V?$allocator@D@2@@std@@QAEAAV01@IV<lambda_67d87d4aa1269033985980465fd1d824>@@@Z PROC ; std::basic_string<char,std::char_traits<char>,std::allocator<char> >::_Reallocate_grow_by<<lambda_67d87d4aa1269033985980465fd1d824> >, COMDAT
; _this$ = ecx
; File c:\program files (x86)\microsoft visual studio\2017\community\vc\tools\msvc\14.13.26128\include\xstring
; Line 3834
  00000	55		 push	 ebp
  00001	8b ec		 mov	 ebp, esp
  00003	81 ec 3c 01 00
	00		 sub	 esp, 316		; 0000013cH
  00009	53		 push	 ebx
  0000a	56		 push	 esi
  0000b	57		 push	 edi
  0000c	51		 push	 ecx
  0000d	8d bd c4 fe ff
	ff		 lea	 edi, DWORD PTR [ebp-316]
  00013	b9 4f 00 00 00	 mov	 ecx, 79			; 0000004fH
  00018	b8 cc cc cc cc	 mov	 eax, -858993460		; ccccccccH
  0001d	f3 ab		 rep stosd
  0001f	59		 pop	 ecx
  00020	a1 00 00 00 00	 mov	 eax, DWORD PTR ___security_cookie
  00025	33 c5		 xor	 eax, ebp
  00027	89 45 fc	 mov	 DWORD PTR __$ArrayPad$[ebp], eax
  0002a	89 4d f4	 mov	 DWORD PTR _this$[ebp], ecx
; Line 3836
  0002d	8b 4d f4	 mov	 ecx, DWORD PTR _this$[ebp]
  00030	e8 00 00 00 00	 call	 ?_Get_data@?$_String_alloc@U?$_String_base_types@DV?$allocator@D@std@@@std@@@std@@QAEAAV?$_String_val@U?$_Simple_types@D@std@@@2@XZ ; std::_String_alloc<std::_String_base_types<char,std::allocator<char> > >::_Get_data
  00035	89 45 e8	 mov	 DWORD PTR __My_data$[ebp], eax
; Line 3837
  00038	8b 45 e8	 mov	 eax, DWORD PTR __My_data$[ebp]
  0003b	8b 48 14	 mov	 ecx, DWORD PTR [eax+20]
  0003e	89 4d dc	 mov	 DWORD PTR __Old_size$[ebp], ecx
; Line 3838
  00041	8b 4d f4	 mov	 ecx, DWORD PTR _this$[ebp]
  00044	e8 00 00 00 00	 call	 ?max_size@?$basic_string@DU?$char_traits@D@std@@V?$allocator@D@2@@std@@QBEIXZ ; std::basic_string<char,std::char_traits<char>,std::allocator<char> >::max_size
  00049	2b 45 dc	 sub	 eax, DWORD PTR __Old_size$[ebp]
  0004c	3b 45 08	 cmp	 eax, DWORD PTR __Size_increase$[ebp]
  0004f	73 05		 jae	 SHORT $LN2@Reallocate
; Line 3840
  00051	e8 00 00 00 00	 call	 ?_Xlen@?$basic_string@DU?$char_traits@D@std@@V?$allocator@D@2@@std@@SAXXZ ; std::basic_string<char,std::char_traits<char>,std::allocator<char> >::_Xlen
$LN2@Reallocate:
; Line 3843
  00056	8b 45 dc	 mov	 eax, DWORD PTR __Old_size$[ebp]
  00059	03 45 08	 add	 eax, DWORD PTR __Size_increase$[ebp]
  0005c	89 45 d0	 mov	 DWORD PTR __New_size$[ebp], eax
; Line 3844
  0005f	8b 45 e8	 mov	 eax, DWORD PTR __My_data$[ebp]
  00062	8b 48 18	 mov	 ecx, DWORD PTR [eax+24]
  00065	89 4d c4	 mov	 DWORD PTR __Old_capacity$[ebp], ecx
; Line 3845
  00068	8b 45 d0	 mov	 eax, DWORD PTR __New_size$[ebp]
  0006b	50		 push	 eax
  0006c	8b 4d f4	 mov	 ecx, DWORD PTR _this$[ebp]
  0006f	e8 00 00 00 00	 call	 ?_Calculate_growth@?$basic_string@DU?$char_traits@D@std@@V?$allocator@D@2@@std@@QBEII@Z ; std::basic_string<char,std::char_traits<char>,std::allocator<char> >::_Calculate_growth
  00074	89 45 b8	 mov	 DWORD PTR __New_capacity$[ebp], eax
; Line 3846
  00077	8b 4d f4	 mov	 ecx, DWORD PTR _this$[ebp]
  0007a	e8 00 00 00 00	 call	 ?_Getal@?$_String_alloc@U?$_String_base_types@DV?$allocator@D@std@@@std@@@std@@QAEAAV?$allocator@D@2@XZ ; std::_String_alloc<std::_String_base_types<char,std::allocator<char> > >::_Getal
  0007f	89 45 ac	 mov	 DWORD PTR __Al$[ebp], eax
; Line 3847
  00082	33 c0		 xor	 eax, eax
  00084	8b 4d b8	 mov	 ecx, DWORD PTR __New_capacity$[ebp]
  00087	83 c1 01	 add	 ecx, 1
  0008a	0f 92 c0	 setb	 al
  0008d	f7 d8		 neg	 eax
  0008f	0b c1		 or	 eax, ecx
  00091	50		 push	 eax
  00092	8b 4d ac	 mov	 ecx, DWORD PTR __Al$[ebp]
  00095	e8 00 00 00 00	 call	 ?allocate@?$allocator@D@std@@QAEPADI@Z ; std::allocator<char>::allocate
  0009a	89 45 a0	 mov	 DWORD PTR __New_ptr$[ebp], eax
; Line 3848
  0009d	8b 4d e8	 mov	 ecx, DWORD PTR __My_data$[ebp]
  000a0	e8 00 00 00 00	 call	 ?_Orphan_all@_Container_base12@std@@QAEXXZ ; std::_Container_base12::_Orphan_all
; Line 3849
  000a5	8b 45 e8	 mov	 eax, DWORD PTR __My_data$[ebp]
  000a8	8b 4d d0	 mov	 ecx, DWORD PTR __New_size$[ebp]
  000ab	89 48 14	 mov	 DWORD PTR [eax+20], ecx
; Line 3850
  000ae	8b 45 e8	 mov	 eax, DWORD PTR __My_data$[ebp]
  000b1	8b 4d b8	 mov	 ecx, DWORD PTR __New_capacity$[ebp]
  000b4	89 48 18	 mov	 DWORD PTR [eax+24], ecx
; Line 3851
  000b7	8b 45 a0	 mov	 eax, DWORD PTR __New_ptr$[ebp]
  000ba	50		 push	 eax
  000bb	e8 00 00 00 00	 call	 ??$_Unfancy@D@std@@YAPADPAD@Z ; std::_Unfancy<char>
  000c0	83 c4 04	 add	 esp, 4
  000c3	89 45 94	 mov	 DWORD PTR __Raw_new$[ebp], eax
; Line 3852
  000c6	83 7d c4 10	 cmp	 DWORD PTR __Old_capacity$[ebp], 16 ; 00000010H
  000ca	72 44		 jb	 SHORT $LN3@Reallocate
; Line 3854
  000cc	8b 45 e8	 mov	 eax, DWORD PTR __My_data$[ebp]
  000cf	8b 48 04	 mov	 ecx, DWORD PTR [eax+4]
  000d2	89 4d 88	 mov	 DWORD PTR __Old_ptr$1[ebp], ecx
; Line 3855
  000d5	8b 45 dc	 mov	 eax, DWORD PTR __Old_size$[ebp]
  000d8	50		 push	 eax
  000d9	8b 4d 88	 mov	 ecx, DWORD PTR __Old_ptr$1[ebp]
  000dc	51		 push	 ecx
  000dd	e8 00 00 00 00	 call	 ??$_Unfancy@D@std@@YAPADPAD@Z ; std::_Unfancy<char>
  000e2	83 c4 04	 add	 esp, 4
  000e5	50		 push	 eax
  000e6	8b 55 94	 mov	 edx, DWORD PTR __Raw_new$[ebp]
  000e9	52		 push	 edx
  000ea	8d 4d 0c	 lea	 ecx, DWORD PTR __Fn$[ebp]
  000ed	e8 00 00 00 00	 call	 ??R<lambda_67d87d4aa1269033985980465fd1d824>@@QBEXQADQBDI@Z ; <lambda_67d87d4aa1269033985980465fd1d824>::operator()
; Line 3856
  000f2	8b 45 c4	 mov	 eax, DWORD PTR __Old_capacity$[ebp]
  000f5	83 c0 01	 add	 eax, 1
  000f8	50		 push	 eax
  000f9	8b 4d 88	 mov	 ecx, DWORD PTR __Old_ptr$1[ebp]
  000fc	51		 push	 ecx
  000fd	8b 4d ac	 mov	 ecx, DWORD PTR __Al$[ebp]
  00100	e8 00 00 00 00	 call	 ?deallocate@?$allocator@D@std@@QAEXQADI@Z ; std::allocator<char>::deallocate
; Line 3857
  00105	8b 45 e8	 mov	 eax, DWORD PTR __My_data$[ebp]
  00108	8b 4d a0	 mov	 ecx, DWORD PTR __New_ptr$[ebp]
  0010b	89 48 04	 mov	 DWORD PTR [eax+4], ecx
; Line 3859
  0010e	eb 37		 jmp	 SHORT $LN4@Reallocate
$LN3@Reallocate:
; Line 3861
  00110	8b 45 dc	 mov	 eax, DWORD PTR __Old_size$[ebp]
  00113	50		 push	 eax
  00114	8b 4d e8	 mov	 ecx, DWORD PTR __My_data$[ebp]
  00117	83 c1 04	 add	 ecx, 4
  0011a	51		 push	 ecx
  0011b	8b 55 94	 mov	 edx, DWORD PTR __Raw_new$[ebp]
  0011e	52		 push	 edx
  0011f	8d 4d 0c	 lea	 ecx, DWORD PTR __Fn$[ebp]
  00122	e8 00 00 00 00	 call	 ??R<lambda_67d87d4aa1269033985980465fd1d824>@@QBEXQADQBDI@Z ; <lambda_67d87d4aa1269033985980465fd1d824>::operator()
; Line 3862
  00127	8d 45 a0	 lea	 eax, DWORD PTR __New_ptr$[ebp]
  0012a	50		 push	 eax
  0012b	8b 4d e8	 mov	 ecx, DWORD PTR __My_data$[ebp]
  0012e	83 c1 04	 add	 ecx, 4
  00131	51		 push	 ecx
  00132	e8 00 00 00 00	 call	 ??$addressof@PAD@std@@YAPAPADAAPAD@Z ; std::addressof<char *>
  00137	83 c4 04	 add	 esp, 4
  0013a	50		 push	 eax
  0013b	8b 55 ac	 mov	 edx, DWORD PTR __Al$[ebp]
  0013e	52		 push	 edx
  0013f	e8 00 00 00 00	 call	 ??$construct@PADABQAD@?$_Default_allocator_traits@V?$allocator@D@std@@@std@@SAXAAV?$allocator@D@1@QAPADABQAD@Z ; std::_Default_allocator_traits<std::allocator<char> >::construct<char *,char * const &>
  00144	83 c4 0c	 add	 esp, 12			; 0000000cH
$LN4@Reallocate:
; Line 3865
  00147	8b 45 f4	 mov	 eax, DWORD PTR _this$[ebp]
$LN5@Reallocate:
; Line 3866
  0014a	52		 push	 edx
  0014b	8b cd		 mov	 ecx, ebp
  0014d	50		 push	 eax
  0014e	8d 15 00 00 00
	00		 lea	 edx, DWORD PTR $LN8@Reallocate
  00154	e8 00 00 00 00	 call	 @_RTC_CheckStackVars@8
  00159	58		 pop	 eax
  0015a	5a		 pop	 edx
  0015b	5f		 pop	 edi
  0015c	5e		 pop	 esi
  0015d	5b		 pop	 ebx
  0015e	8b 4d fc	 mov	 ecx, DWORD PTR __$ArrayPad$[ebp]
  00161	33 cd		 xor	 ecx, ebp
  00163	e8 00 00 00 00	 call	 @__security_check_cookie@4
  00168	81 c4 3c 01 00
	00		 add	 esp, 316		; 0000013cH
  0016e	3b ec		 cmp	 ebp, esp
  00170	e8 00 00 00 00	 call	 __RTC_CheckEsp
  00175	8b e5		 mov	 esp, ebp
  00177	5d		 pop	 ebp
  00178	c2 08 00	 ret	 8
  0017b	90		 npad	 1
$LN8@Reallocate:
  0017c	01 00 00 00	 DD	 1
  00180	00 00 00 00	 DD	 $LN7@Reallocate
$LN7@Reallocate:
  00184	a0 ff ff ff	 DD	 -96			; ffffffa0H
  00188	04 00 00 00	 DD	 4
  0018c	00 00 00 00	 DD	 $LN6@Reallocate
$LN6@Reallocate:
  00190	5f		 DB	 95			; 0000005fH
  00191	4e		 DB	 78			; 0000004eH
  00192	65		 DB	 101			; 00000065H
  00193	77		 DB	 119			; 00000077H
  00194	5f		 DB	 95			; 0000005fH
  00195	70		 DB	 112			; 00000070H
  00196	74		 DB	 116			; 00000074H
  00197	72		 DB	 114			; 00000072H
  00198	00		 DB	 0
??$_Reallocate_grow_by@V<lambda_67d87d4aa1269033985980465fd1d824>@@$$V@?$basic_string@DU?$char_traits@D@std@@V?$allocator@D@2@@std@@QAEAAV01@IV<lambda_67d87d4aa1269033985980465fd1d824>@@@Z ENDP ; std::basic_string<char,std::char_traits<char>,std::allocator<char> >::_Reallocate_grow_by<<lambda_67d87d4aa1269033985980465fd1d824> >
_TEXT	ENDS
; Function compile flags: /Odtp /RTCsu /ZI
;	COMDAT ??R<lambda_67d87d4aa1269033985980465fd1d824>@@QBEXQADQBDI@Z
_TEXT	SEGMENT
_this$ = -8						; size = 4
__New_ptr$ = 8						; size = 4
__Old_ptr$ = 12						; size = 4
__Old_size$ = 16					; size = 4
??R<lambda_67d87d4aa1269033985980465fd1d824>@@QBEXQADQBDI@Z PROC ; <lambda_67d87d4aa1269033985980465fd1d824>::operator(), COMDAT
; _this$ = ecx
; File c:\program files (x86)\microsoft visual studio\2017\community\vc\tools\msvc\14.13.26128\include\xstring
; Line 3291
  00000	55		 push	 ebp
  00001	8b ec		 mov	 ebp, esp
  00003	81 ec cc 00 00
	00		 sub	 esp, 204		; 000000ccH
  00009	53		 push	 ebx
  0000a	56		 push	 esi
  0000b	57		 push	 edi
  0000c	51		 push	 ecx
  0000d	8d bd 34 ff ff
	ff		 lea	 edi, DWORD PTR [ebp-204]
  00013	b9 33 00 00 00	 mov	 ecx, 51			; 00000033H
  00018	b8 cc cc cc cc	 mov	 eax, -858993460		; ccccccccH
  0001d	f3 ab		 rep stosd
  0001f	59		 pop	 ecx
  00020	89 4d f8	 mov	 DWORD PTR _this$[ebp], ecx
; Line 3292
  00023	8b 45 10	 mov	 eax, DWORD PTR __Old_size$[ebp]
  00026	83 c0 01	 add	 eax, 1
  00029	50		 push	 eax
  0002a	8b 4d 0c	 mov	 ecx, DWORD PTR __Old_ptr$[ebp]
  0002d	51		 push	 ecx
  0002e	8b 55 08	 mov	 edx, DWORD PTR __New_ptr$[ebp]
  00031	52		 push	 edx
  00032	e8 00 00 00 00	 call	 ?copy@?$char_traits@D@std@@SAPADQADQBDI@Z ; std::char_traits<char>::copy
  00037	83 c4 0c	 add	 esp, 12			; 0000000cH
; Line 3293
  0003a	5f		 pop	 edi
  0003b	5e		 pop	 esi
  0003c	5b		 pop	 ebx
  0003d	81 c4 cc 00 00
	00		 add	 esp, 204		; 000000ccH
  00043	3b ec		 cmp	 ebp, esp
  00045	e8 00 00 00 00	 call	 __RTC_CheckEsp
  0004a	8b e5		 mov	 esp, ebp
  0004c	5d		 pop	 ebp
  0004d	c2 0c 00	 ret	 12			; 0000000cH
??R<lambda_67d87d4aa1269033985980465fd1d824>@@QBEXQADQBDI@Z ENDP ; <lambda_67d87d4aa1269033985980465fd1d824>::operator()
_TEXT	ENDS
; Function compile flags: /Odtp /RTCsu /ZI
;	COMDAT ??$forward@U_Container_proxy@std@@@std@@YA$$QAU_Container_proxy@0@AAU10@@Z
_TEXT	SEGMENT
__Arg$ = 8						; size = 4
??$forward@U_Container_proxy@std@@@std@@YA$$QAU_Container_proxy@0@AAU10@@Z PROC ; std::forward<std::_Container_proxy>, COMDAT
; File c:\program files (x86)\microsoft visual studio\2017\community\vc\tools\msvc\14.13.26128\include\type_traits
; Line 1539
  00000	55		 push	 ebp
  00001	8b ec		 mov	 ebp, esp
  00003	81 ec c0 00 00
	00		 sub	 esp, 192		; 000000c0H
  00009	53		 push	 ebx
  0000a	56		 push	 esi
  0000b	57		 push	 edi
  0000c	8d bd 40 ff ff
	ff		 lea	 edi, DWORD PTR [ebp-192]
  00012	b9 30 00 00 00	 mov	 ecx, 48			; 00000030H
  00017	b8 cc cc cc cc	 mov	 eax, -858993460		; ccccccccH
  0001c	f3 ab		 rep stosd
; Line 1540
  0001e	8b 45 08	 mov	 eax, DWORD PTR __Arg$[ebp]
; Line 1541
  00021	5f		 pop	 edi
  00022	5e		 pop	 esi
  00023	5b		 pop	 ebx
  00024	8b e5		 mov	 esp, ebp
  00026	5d		 pop	 ebp
  00027	c3		 ret	 0
??$forward@U_Container_proxy@std@@@std@@YA$$QAU_Container_proxy@0@AAU10@@Z ENDP ; std::forward<std::_Container_proxy>
_TEXT	ENDS
; Function compile flags: /Odtp /RTCsu /ZI
;	COMDAT ??$_Allocate_manually_vector_aligned@U_Default_allocate_traits@std@@@std@@YAPAXI@Z
_TEXT	SEGMENT
__Ptr$ = -32						; size = 4
__Ptr_container$ = -20					; size = 4
__Block_size$ = -8					; size = 4
__Bytes$ = 8						; size = 4
??$_Allocate_manually_vector_aligned@U_Default_allocate_traits@std@@@std@@YAPAXI@Z PROC ; std::_Allocate_manually_vector_aligned<std::_Default_allocate_traits>, COMDAT
; File c:\program files (x86)\microsoft visual studio\2017\community\vc\tools\msvc\14.13.26128\include\xmemory0
; Line 93
  00000	55		 push	 ebp
  00001	8b ec		 mov	 ebp, esp
  00003	81 ec e4 00 00
	00		 sub	 esp, 228		; 000000e4H
  00009	53		 push	 ebx
  0000a	56		 push	 esi
  0000b	57		 push	 edi
  0000c	8d bd 1c ff ff
	ff		 lea	 edi, DWORD PTR [ebp-228]
  00012	b9 39 00 00 00	 mov	 ecx, 57			; 00000039H
  00017	b8 cc cc cc cc	 mov	 eax, -858993460		; ccccccccH
  0001c	f3 ab		 rep stosd
; Line 94
  0001e	8b 45 08	 mov	 eax, DWORD PTR __Bytes$[ebp]
  00021	83 c0 27	 add	 eax, 39			; 00000027H
  00024	89 45 f8	 mov	 DWORD PTR __Block_size$[ebp], eax
; Line 95
  00027	8b 45 f8	 mov	 eax, DWORD PTR __Block_size$[ebp]
  0002a	3b 45 08	 cmp	 eax, DWORD PTR __Bytes$[ebp]
  0002d	77 07		 ja	 SHORT $LN2@Allocate_m
; Line 98
  0002f	c7 45 f8 ff ff
	ff ff		 mov	 DWORD PTR __Block_size$[ebp], -1
$LN2@Allocate_m:
; Line 101
  00036	8b 45 f8	 mov	 eax, DWORD PTR __Block_size$[ebp]
  00039	50		 push	 eax
  0003a	e8 00 00 00 00	 call	 ?_Allocate@_Default_allocate_traits@std@@SAPAXI@Z ; std::_Default_allocate_traits::_Allocate
  0003f	83 c4 04	 add	 esp, 4
  00042	89 45 ec	 mov	 DWORD PTR __Ptr_container$[ebp], eax
; Line 102
  00045	83 7d ec 00	 cmp	 DWORD PTR __Ptr_container$[ebp], 0
  00049	75 5f		 jne	 SHORT $LN3@Allocate_m
  0004b	b8 00 00 00 00	 mov	 eax, OFFSET ??_C@_0BE@LMNLACIC@_Ptr_container?5?$CB?$DN?50?$AA@
  00050	85 c0		 test	 eax, eax
  00052	74 04		 je	 SHORT $LN5@Allocate_m
  00054	33 c9		 xor	 ecx, ecx
  00056	75 2d		 jne	 SHORT $LN6@Allocate_m
$LN5@Allocate_m:
  00058	8b f4		 mov	 esi, esp
  0005a	68 00 00 00 00	 push	 OFFSET ??_C@_1DG@HGDKEBPG@?$AA?$CC?$AA_?$AAP?$AAt?$AAr?$AA_?$AAc?$AAo?$AAn?$AAt?$AAa?$AAi?$AAn?$AAe?$AAr?$AA?5?$AA?$CB?$AA?$DN?$AA?5?$AA0?$AA?$CC?$AA?5?$AA?$CG?$AA?$CG?$AA?5?$AA0?$AA?$AA@
  0005f	68 00 00 00 00	 push	 OFFSET ??_C@_17CNPHIMPH@?$AA?$CF?$AAl?$AAs?$AA?$AA@
  00064	6a 00		 push	 0
  00066	6a 66		 push	 102			; 00000066H
  00068	68 00 00 00 00	 push	 OFFSET ??_C@_1NC@HABIDIJF@?$AAc?$AA?3?$AA?2?$AAp?$AAr?$AAo?$AAg?$AAr?$AAa?$AAm?$AA?5?$AAf?$AAi?$AAl?$AAe?$AAs?$AA?5?$AA?$CI?$AAx?$AA8?$AA6?$AA?$CJ?$AA?2?$AAm?$AAi?$AAc?$AAr?$AAo?$AAs?$AAo?$AAf?$AAt@
  0006d	6a 02		 push	 2
  0006f	ff 15 00 00 00
	00		 call	 DWORD PTR __imp___CrtDbgReportW
  00075	83 c4 18	 add	 esp, 24			; 00000018H
  00078	3b f4		 cmp	 esi, esp
  0007a	e8 00 00 00 00	 call	 __RTC_CheckEsp
  0007f	83 f8 01	 cmp	 eax, 1
  00082	75 01		 jne	 SHORT $LN6@Allocate_m
  00084	cc		 int	 3
$LN6@Allocate_m:
  00085	8b f4		 mov	 esi, esp
  00087	6a 00		 push	 0
  00089	6a 66		 push	 102			; 00000066H
  0008b	68 00 00 00 00	 push	 OFFSET ??_C@_1NC@HABIDIJF@?$AAc?$AA?3?$AA?2?$AAp?$AAr?$AAo?$AAg?$AAr?$AAa?$AAm?$AA?5?$AAf?$AAi?$AAl?$AAe?$AAs?$AA?5?$AA?$CI?$AAx?$AA8?$AA6?$AA?$CJ?$AA?2?$AAm?$AAi?$AAc?$AAr?$AAo?$AAs?$AAo?$AAf?$AAt@
  00090	68 00 00 00 00	 push	 OFFSET ??_C@_1EO@GFNCMDLA@?$AAs?$AAt?$AAd?$AA?3?$AA?3?$AA_?$AAA?$AAl?$AAl?$AAo?$AAc?$AAa?$AAt?$AAe?$AA_?$AAm?$AAa?$AAn?$AAu?$AAa?$AAl?$AAl?$AAy?$AA_?$AAv?$AAe?$AAc?$AAt?$AAo?$AAr?$AA_?$AAa@
  00095	68 00 00 00 00	 push	 OFFSET ??_C@_1CG@JNLFBNGN@?$AA?$CC?$AAi?$AAn?$AAv?$AAa?$AAl?$AAi?$AAd?$AA?5?$AAa?$AAr?$AAg?$AAu?$AAm?$AAe?$AAn?$AAt?$AA?$CC?$AA?$AA@
  0009a	ff 15 00 00 00
	00		 call	 DWORD PTR __imp___invalid_parameter
  000a0	83 c4 14	 add	 esp, 20			; 00000014H
  000a3	3b f4		 cmp	 esi, esp
  000a5	e8 00 00 00 00	 call	 __RTC_CheckEsp
$LN3@Allocate_m:
; Line 104
  000aa	8b 45 ec	 mov	 eax, DWORD PTR __Ptr_container$[ebp]
  000ad	83 c0 27	 add	 eax, 39			; 00000027H
  000b0	83 e0 e0	 and	 eax, -32		; ffffffe0H
  000b3	89 45 e0	 mov	 DWORD PTR __Ptr$[ebp], eax
; Line 105
  000b6	b8 04 00 00 00	 mov	 eax, 4
  000bb	6b c8 ff	 imul	 ecx, eax, -1
  000be	8b 55 e0	 mov	 edx, DWORD PTR __Ptr$[ebp]
  000c1	8b 45 ec	 mov	 eax, DWORD PTR __Ptr_container$[ebp]
  000c4	89 04 0a	 mov	 DWORD PTR [edx+ecx], eax
; Line 108
  000c7	b8 04 00 00 00	 mov	 eax, 4
  000cc	6b c8 fe	 imul	 ecx, eax, -2
  000cf	8b 55 e0	 mov	 edx, DWORD PTR __Ptr$[ebp]
  000d2	c7 04 0a fa fa
	fa fa		 mov	 DWORD PTR [edx+ecx], -84215046 ; fafafafaH
; Line 110
  000d9	8b 45 e0	 mov	 eax, DWORD PTR __Ptr$[ebp]
; Line 111
  000dc	5f		 pop	 edi
  000dd	5e		 pop	 esi
  000de	5b		 pop	 ebx
  000df	81 c4 e4 00 00
	00		 add	 esp, 228		; 000000e4H
  000e5	3b ec		 cmp	 ebp, esp
  000e7	e8 00 00 00 00	 call	 __RTC_CheckEsp
  000ec	8b e5		 mov	 esp, ebp
  000ee	5d		 pop	 ebp
  000ef	c3		 ret	 0
??$_Allocate_manually_vector_aligned@U_Default_allocate_traits@std@@@std@@YAPAXI@Z ENDP ; std::_Allocate_manually_vector_aligned<std::_Default_allocate_traits>
_TEXT	ENDS
; Function compile flags: /Odtp /RTCsu /ZI
;	COMDAT ??$forward@ABQAD@std@@YAABQADABQAD@Z
_TEXT	SEGMENT
__Arg$ = 8						; size = 4
??$forward@ABQAD@std@@YAABQADABQAD@Z PROC		; std::forward<char * const &>, COMDAT
; File c:\program files (x86)\microsoft visual studio\2017\community\vc\tools\msvc\14.13.26128\include\type_traits
; Line 1539
  00000	55		 push	 ebp
  00001	8b ec		 mov	 ebp, esp
  00003	81 ec c0 00 00
	00		 sub	 esp, 192		; 000000c0H
  00009	53		 push	 ebx
  0000a	56		 push	 esi
  0000b	57		 push	 edi
  0000c	8d bd 40 ff ff
	ff		 lea	 edi, DWORD PTR [ebp-192]
  00012	b9 30 00 00 00	 mov	 ecx, 48			; 00000030H
  00017	b8 cc cc cc cc	 mov	 eax, -858993460		; ccccccccH
  0001c	f3 ab		 rep stosd
; Line 1540
  0001e	8b 45 08	 mov	 eax, DWORD PTR __Arg$[ebp]
; Line 1541
  00021	5f		 pop	 edi
  00022	5e		 pop	 esi
  00023	5b		 pop	 ebx
  00024	8b e5		 mov	 esp, ebp
  00026	5d		 pop	 ebp
  00027	c3		 ret	 0
??$forward@ABQAD@std@@YAABQADABQAD@Z ENDP		; std::forward<char * const &>
_TEXT	ENDS
; Function compile flags: /Odtp /RTCsu /ZI
;	COMDAT ??$?0V?$allocator@D@std@@$$V@?$_Compressed_pair@V?$allocator@D@std@@V?$_String_val@U?$_Simple_types@D@std@@@2@$00@std@@QAE@U_One_then_variadic_args_t@1@$$QAV?$allocator@D@1@@Z
_TEXT	SEGMENT
_this$ = -8						; size = 4
___formal$ = 8						; size = 1
__Val1$ = 12						; size = 4
??$?0V?$allocator@D@std@@$$V@?$_Compressed_pair@V?$allocator@D@std@@V?$_String_val@U?$_Simple_types@D@std@@@2@$00@std@@QAE@U_One_then_variadic_args_t@1@$$QAV?$allocator@D@1@@Z PROC ; std::_Compressed_pair<std::allocator<char>,std::_String_val<std::_Simple_types<char> >,1>::_Compressed_pair<std::allocator<char>,std::_String_val<std::_Simple_types<char> >,1><std::allocator<char> >, COMDAT
; _this$ = ecx
; File c:\program files (x86)\microsoft visual studio\2017\community\vc\tools\msvc\14.13.26128\include\xutility
; Line 319
  00000	55		 push	 ebp
  00001	8b ec		 mov	 ebp, esp
  00003	81 ec cc 00 00
	00		 sub	 esp, 204		; 000000ccH
  00009	53		 push	 ebx
  0000a	56		 push	 esi
  0000b	57		 push	 edi
  0000c	51		 push	 ecx
  0000d	8d bd 34 ff ff
	ff		 lea	 edi, DWORD PTR [ebp-204]
  00013	b9 33 00 00 00	 mov	 ecx, 51			; 00000033H
  00018	b8 cc cc cc cc	 mov	 eax, -858993460		; ccccccccH
  0001d	f3 ab		 rep stosd
  0001f	59		 pop	 ecx
  00020	89 4d f8	 mov	 DWORD PTR _this$[ebp], ecx
  00023	8b 45 0c	 mov	 eax, DWORD PTR __Val1$[ebp]
  00026	50		 push	 eax
  00027	e8 00 00 00 00	 call	 ??$forward@V?$allocator@D@std@@@std@@YA$$QAV?$allocator@D@0@AAV10@@Z ; std::forward<std::allocator<char> >
  0002c	83 c4 04	 add	 esp, 4
; Line 320
  0002f	8b 4d f8	 mov	 ecx, DWORD PTR _this$[ebp]
  00032	e8 00 00 00 00	 call	 ??0?$_String_val@U?$_Simple_types@D@std@@@std@@QAE@XZ ; std::_String_val<std::_Simple_types<char> >::_String_val<std::_Simple_types<char> >
; Line 322
  00037	8b 45 f8	 mov	 eax, DWORD PTR _this$[ebp]
  0003a	5f		 pop	 edi
  0003b	5e		 pop	 esi
  0003c	5b		 pop	 ebx
  0003d	81 c4 cc 00 00
	00		 add	 esp, 204		; 000000ccH
  00043	3b ec		 cmp	 ebp, esp
  00045	e8 00 00 00 00	 call	 __RTC_CheckEsp
  0004a	8b e5		 mov	 esp, ebp
  0004c	5d		 pop	 ebp
  0004d	c2 08 00	 ret	 8
??$?0V?$allocator@D@std@@$$V@?$_Compressed_pair@V?$allocator@D@std@@V?$_String_val@U?$_Simple_types@D@std@@@2@$00@std@@QAE@U_One_then_variadic_args_t@1@$$QAV?$allocator@D@1@@Z ENDP ; std::_Compressed_pair<std::allocator<char>,std::_String_val<std::_Simple_types<char> >,1>::_Compressed_pair<std::allocator<char>,std::_String_val<std::_Simple_types<char> >,1><std::allocator<char> >
_TEXT	ENDS
; Function compile flags: /Odtp /RTCsu /ZI
;	COMDAT ??$forward@V?$allocator@D@std@@@std@@YA$$QAV?$allocator@D@0@AAV10@@Z
_TEXT	SEGMENT
__Arg$ = 8						; size = 4
??$forward@V?$allocator@D@std@@@std@@YA$$QAV?$allocator@D@0@AAV10@@Z PROC ; std::forward<std::allocator<char> >, COMDAT
; File c:\program files (x86)\microsoft visual studio\2017\community\vc\tools\msvc\14.13.26128\include\type_traits
; Line 1539
  00000	55		 push	 ebp
  00001	8b ec		 mov	 ebp, esp
  00003	81 ec c0 00 00
	00		 sub	 esp, 192		; 000000c0H
  00009	53		 push	 ebx
  0000a	56		 push	 esi
  0000b	57		 push	 edi
  0000c	8d bd 40 ff ff
	ff		 lea	 edi, DWORD PTR [ebp-192]
  00012	b9 30 00 00 00	 mov	 ecx, 48			; 00000030H
  00017	b8 cc cc cc cc	 mov	 eax, -858993460		; ccccccccH
  0001c	f3 ab		 rep stosd
; Line 1540
  0001e	8b 45 08	 mov	 eax, DWORD PTR __Arg$[ebp]
; Line 1541
  00021	5f		 pop	 edi
  00022	5e		 pop	 esi
  00023	5b		 pop	 ebx
  00024	8b e5		 mov	 esp, ebp
  00026	5d		 pop	 ebp
  00027	c3		 ret	 0
??$forward@V?$allocator@D@std@@@std@@YA$$QAV?$allocator@D@0@AAV10@@Z ENDP ; std::forward<std::allocator<char> >
_TEXT	ENDS
; Function compile flags: /Odtp /RTCsu /ZI
;	COMDAT ??Bsentry@?$basic_ostream@DU?$char_traits@D@std@@@std@@QBE_NXZ
_TEXT	SEGMENT
_this$ = -8						; size = 4
??Bsentry@?$basic_ostream@DU?$char_traits@D@std@@@std@@QBE_NXZ PROC ; std::basic_ostream<char,std::char_traits<char> >::sentry::operator bool, COMDAT
; _this$ = ecx
; File c:\program files (x86)\microsoft visual studio\2017\community\vc\tools\msvc\14.13.26128\include\ostream
; Line 139
  00000	55		 push	 ebp
  00001	8b ec		 mov	 ebp, esp
  00003	81 ec cc 00 00
	00		 sub	 esp, 204		; 000000ccH
  00009	53		 push	 ebx
  0000a	56		 push	 esi
  0000b	57		 push	 edi
  0000c	51		 push	 ecx
  0000d	8d bd 34 ff ff
	ff		 lea	 edi, DWORD PTR [ebp-204]
  00013	b9 33 00 00 00	 mov	 ecx, 51			; 00000033H
  00018	b8 cc cc cc cc	 mov	 eax, -858993460		; ccccccccH
  0001d	f3 ab		 rep stosd
  0001f	59		 pop	 ecx
  00020	89 4d f8	 mov	 DWORD PTR _this$[ebp], ecx
; Line 140
  00023	8b 45 f8	 mov	 eax, DWORD PTR _this$[ebp]
  00026	8a 40 04	 mov	 al, BYTE PTR [eax+4]
; Line 141
  00029	5f		 pop	 edi
  0002a	5e		 pop	 esi
  0002b	5b		 pop	 ebx
  0002c	8b e5		 mov	 esp, ebp
  0002e	5d		 pop	 ebp
  0002f	c3		 ret	 0
??Bsentry@?$basic_ostream@DU?$char_traits@D@std@@@std@@QBE_NXZ ENDP ; std::basic_ostream<char,std::char_traits<char> >::sentry::operator bool
_TEXT	ENDS
; Function compile flags: /Odtp /RTCsu /ZI
;	COMDAT ??1sentry@?$basic_ostream@DU?$char_traits@D@std@@@std@@QAE@XZ
_TEXT	SEGMENT
_this$ = -20						; size = 4
__$EHRec$ = -12						; size = 12
??1sentry@?$basic_ostream@DU?$char_traits@D@std@@@std@@QAE@XZ PROC ; std::basic_ostream<char,std::char_traits<char> >::sentry::~sentry, COMDAT
; _this$ = ecx
; File c:\program files (x86)\microsoft visual studio\2017\community\vc\tools\msvc\14.13.26128\include\ostream
; Line 127
  00000	55		 push	 ebp
  00001	8b ec		 mov	 ebp, esp
  00003	6a ff		 push	 -1
  00005	68 00 00 00 00	 push	 __ehhandler$??1sentry@?$basic_ostream@DU?$char_traits@D@std@@@std@@QAE@XZ
  0000a	64 a1 00 00 00
	00		 mov	 eax, DWORD PTR fs:0
  00010	50		 push	 eax
  00011	81 ec cc 00 00
	00		 sub	 esp, 204		; 000000ccH
  00017	53		 push	 ebx
  00018	56		 push	 esi
  00019	57		 push	 edi
  0001a	51		 push	 ecx
  0001b	8d bd 28 ff ff
	ff		 lea	 edi, DWORD PTR [ebp-216]
  00021	b9 33 00 00 00	 mov	 ecx, 51			; 00000033H
  00026	b8 cc cc cc cc	 mov	 eax, -858993460		; ccccccccH
  0002b	f3 ab		 rep stosd
  0002d	59		 pop	 ecx
  0002e	a1 00 00 00 00	 mov	 eax, DWORD PTR ___security_cookie
  00033	33 c5		 xor	 eax, ebp
  00035	50		 push	 eax
  00036	8d 45 f4	 lea	 eax, DWORD PTR __$EHRec$[ebp]
  00039	64 a3 00 00 00
	00		 mov	 DWORD PTR fs:0, eax
  0003f	89 4d ec	 mov	 DWORD PTR _this$[ebp], ecx
; Line 129
  00042	e8 00 00 00 00	 call	 ?uncaught_exceptions@std@@YAHXZ ; std::uncaught_exceptions
  00047	85 c0		 test	 eax, eax
  00049	75 14		 jne	 SHORT $LN1@sentry
; Line 131
  0004b	8b f4		 mov	 esi, esp
  0004d	8b 45 ec	 mov	 eax, DWORD PTR _this$[ebp]
  00050	8b 08		 mov	 ecx, DWORD PTR [eax]
  00052	ff 15 00 00 00
	00		 call	 DWORD PTR __imp_?_Osfx@?$basic_ostream@DU?$char_traits@D@std@@@std@@QAEXXZ
  00058	3b f4		 cmp	 esi, esp
  0005a	e8 00 00 00 00	 call	 __RTC_CheckEsp
$LN1@sentry:
; Line 136
  0005f	8b 4d ec	 mov	 ecx, DWORD PTR _this$[ebp]
  00062	e8 00 00 00 00	 call	 ??1_Sentry_base@?$basic_ostream@DU?$char_traits@D@std@@@std@@QAE@XZ ; std::basic_ostream<char,std::char_traits<char> >::_Sentry_base::~_Sentry_base
  00067	8b 4d f4	 mov	 ecx, DWORD PTR __$EHRec$[ebp]
  0006a	64 89 0d 00 00
	00 00		 mov	 DWORD PTR fs:0, ecx
  00071	59		 pop	 ecx
  00072	5f		 pop	 edi
  00073	5e		 pop	 esi
  00074	5b		 pop	 ebx
  00075	81 c4 d8 00 00
	00		 add	 esp, 216		; 000000d8H
  0007b	3b ec		 cmp	 ebp, esp
  0007d	e8 00 00 00 00	 call	 __RTC_CheckEsp
  00082	8b e5		 mov	 esp, ebp
  00084	5d		 pop	 ebp
  00085	c3		 ret	 0
_TEXT	ENDS
;	COMDAT text$x
text$x	SEGMENT
__ehhandler$??1sentry@?$basic_ostream@DU?$char_traits@D@std@@@std@@QAE@XZ:
  00000	8b 54 24 08	 mov	 edx, DWORD PTR [esp+8]
  00004	8d 42 0c	 lea	 eax, DWORD PTR [edx+12]
  00007	8b 8a 24 ff ff
	ff		 mov	 ecx, DWORD PTR [edx-220]
  0000d	33 c8		 xor	 ecx, eax
  0000f	e8 00 00 00 00	 call	 @__security_check_cookie@4
  00014	b8 00 00 00 00	 mov	 eax, OFFSET __ehfuncinfo$??1sentry@?$basic_ostream@DU?$char_traits@D@std@@@std@@QAE@XZ
  00019	e9 00 00 00 00	 jmp	 ___CxxFrameHandler3
text$x	ENDS
??1sentry@?$basic_ostream@DU?$char_traits@D@std@@@std@@QAE@XZ ENDP ; std::basic_ostream<char,std::char_traits<char> >::sentry::~sentry
; Function compile flags: /Odtp /RTCsu /ZI
;	COMDAT ??0sentry@?$basic_ostream@DU?$char_traits@D@std@@@std@@QAE@AAV12@@Z
_TEXT	SEGMENT
_this$ = -20						; size = 4
__$EHRec$ = -12						; size = 12
__Ostr$ = 8						; size = 4
??0sentry@?$basic_ostream@DU?$char_traits@D@std@@@std@@QAE@AAV12@@Z PROC ; std::basic_ostream<char,std::char_traits<char> >::sentry::sentry, COMDAT
; _this$ = ecx
; File c:\program files (x86)\microsoft visual studio\2017\community\vc\tools\msvc\14.13.26128\include\ostream
; Line 120
  00000	55		 push	 ebp
  00001	8b ec		 mov	 ebp, esp
  00003	6a ff		 push	 -1
  00005	68 00 00 00 00	 push	 __ehhandler$??0sentry@?$basic_ostream@DU?$char_traits@D@std@@@std@@QAE@AAV12@@Z
  0000a	64 a1 00 00 00
	00		 mov	 eax, DWORD PTR fs:0
  00010	50		 push	 eax
  00011	81 ec cc 00 00
	00		 sub	 esp, 204		; 000000ccH
  00017	53		 push	 ebx
  00018	56		 push	 esi
  00019	57		 push	 edi
  0001a	51		 push	 ecx
  0001b	8d bd 28 ff ff
	ff		 lea	 edi, DWORD PTR [ebp-216]
  00021	b9 33 00 00 00	 mov	 ecx, 51			; 00000033H
  00026	b8 cc cc cc cc	 mov	 eax, -858993460		; ccccccccH
  0002b	f3 ab		 rep stosd
  0002d	59		 pop	 ecx
  0002e	a1 00 00 00 00	 mov	 eax, DWORD PTR ___security_cookie
  00033	33 c5		 xor	 eax, ebp
  00035	50		 push	 eax
  00036	8d 45 f4	 lea	 eax, DWORD PTR __$EHRec$[ebp]
  00039	64 a3 00 00 00
	00		 mov	 DWORD PTR fs:0, eax
  0003f	89 4d ec	 mov	 DWORD PTR _this$[ebp], ecx
; Line 119
  00042	8b 45 08	 mov	 eax, DWORD PTR __Ostr$[ebp]
  00045	50		 push	 eax
  00046	8b 4d ec	 mov	 ecx, DWORD PTR _this$[ebp]
  00049	e8 00 00 00 00	 call	 ??0_Sentry_base@?$basic_ostream@DU?$char_traits@D@std@@@std@@QAE@AAV12@@Z ; std::basic_ostream<char,std::char_traits<char> >::_Sentry_base::_Sentry_base
  0004e	c7 45 fc 00 00
	00 00		 mov	 DWORD PTR __$EHRec$[ebp+8], 0
; Line 121
  00055	8b 45 08	 mov	 eax, DWORD PTR __Ostr$[ebp]
  00058	8b 08		 mov	 ecx, DWORD PTR [eax]
  0005a	8b 55 08	 mov	 edx, DWORD PTR __Ostr$[ebp]
  0005d	03 51 04	 add	 edx, DWORD PTR [ecx+4]
  00060	8b f4		 mov	 esi, esp
  00062	8b ca		 mov	 ecx, edx
  00064	ff 15 00 00 00
	00		 call	 DWORD PTR __imp_?good@ios_base@std@@QBE_NXZ
  0006a	3b f4		 cmp	 esi, esp
  0006c	e8 00 00 00 00	 call	 __RTC_CheckEsp
  00071	0f b6 c0	 movzx	 eax, al
  00074	85 c0		 test	 eax, eax
  00076	74 6e		 je	 SHORT $LN2@sentry
  00078	8b 45 08	 mov	 eax, DWORD PTR __Ostr$[ebp]
  0007b	8b 08		 mov	 ecx, DWORD PTR [eax]
  0007d	8b 55 08	 mov	 edx, DWORD PTR __Ostr$[ebp]
  00080	03 51 04	 add	 edx, DWORD PTR [ecx+4]
  00083	8b f4		 mov	 esi, esp
  00085	8b ca		 mov	 ecx, edx
  00087	ff 15 00 00 00
	00		 call	 DWORD PTR __imp_?tie@?$basic_ios@DU?$char_traits@D@std@@@std@@QBEPAV?$basic_ostream@DU?$char_traits@D@std@@@2@XZ
  0008d	3b f4		 cmp	 esi, esp
  0008f	e8 00 00 00 00	 call	 __RTC_CheckEsp
  00094	85 c0		 test	 eax, eax
  00096	74 4e		 je	 SHORT $LN2@sentry
  00098	8b 45 08	 mov	 eax, DWORD PTR __Ostr$[ebp]
  0009b	8b 08		 mov	 ecx, DWORD PTR [eax]
  0009d	8b 55 08	 mov	 edx, DWORD PTR __Ostr$[ebp]
  000a0	03 51 04	 add	 edx, DWORD PTR [ecx+4]
  000a3	8b f4		 mov	 esi, esp
  000a5	8b ca		 mov	 ecx, edx
  000a7	ff 15 00 00 00
	00		 call	 DWORD PTR __imp_?tie@?$basic_ios@DU?$char_traits@D@std@@@std@@QBEPAV?$basic_ostream@DU?$char_traits@D@std@@@2@XZ
  000ad	3b f4		 cmp	 esi, esp
  000af	e8 00 00 00 00	 call	 __RTC_CheckEsp
  000b4	3b 45 08	 cmp	 eax, DWORD PTR __Ostr$[ebp]
  000b7	74 2d		 je	 SHORT $LN2@sentry
; Line 122
  000b9	8b 45 08	 mov	 eax, DWORD PTR __Ostr$[ebp]
  000bc	8b 08		 mov	 ecx, DWORD PTR [eax]
  000be	8b 55 08	 mov	 edx, DWORD PTR __Ostr$[ebp]
  000c1	03 51 04	 add	 edx, DWORD PTR [ecx+4]
  000c4	8b f4		 mov	 esi, esp
  000c6	8b ca		 mov	 ecx, edx
  000c8	ff 15 00 00 00
	00		 call	 DWORD PTR __imp_?tie@?$basic_ios@DU?$char_traits@D@std@@@std@@QBEPAV?$basic_ostream@DU?$char_traits@D@std@@@2@XZ
  000ce	3b f4		 cmp	 esi, esp
  000d0	e8 00 00 00 00	 call	 __RTC_CheckEsp
  000d5	8b f4		 mov	 esi, esp
  000d7	8b c8		 mov	 ecx, eax
  000d9	ff 15 00 00 00
	00		 call	 DWORD PTR __imp_?flush@?$basic_ostream@DU?$char_traits@D@std@@@std@@QAEAAV12@XZ
  000df	3b f4		 cmp	 esi, esp
  000e1	e8 00 00 00 00	 call	 __RTC_CheckEsp
$LN2@sentry:
; Line 123
  000e6	8b 45 08	 mov	 eax, DWORD PTR __Ostr$[ebp]
  000e9	8b 08		 mov	 ecx, DWORD PTR [eax]
  000eb	8b 55 08	 mov	 edx, DWORD PTR __Ostr$[ebp]
  000ee	03 51 04	 add	 edx, DWORD PTR [ecx+4]
  000f1	8b f4		 mov	 esi, esp
  000f3	8b ca		 mov	 ecx, edx
  000f5	ff 15 00 00 00
	00		 call	 DWORD PTR __imp_?good@ios_base@std@@QBE_NXZ
  000fb	3b f4		 cmp	 esi, esp
  000fd	e8 00 00 00 00	 call	 __RTC_CheckEsp
  00102	8b 4d ec	 mov	 ecx, DWORD PTR _this$[ebp]
  00105	88 41 04	 mov	 BYTE PTR [ecx+4], al
; Line 124
  00108	c7 45 fc ff ff
	ff ff		 mov	 DWORD PTR __$EHRec$[ebp+8], -1
  0010f	8b 45 ec	 mov	 eax, DWORD PTR _this$[ebp]
  00112	8b 4d f4	 mov	 ecx, DWORD PTR __$EHRec$[ebp]
  00115	64 89 0d 00 00
	00 00		 mov	 DWORD PTR fs:0, ecx
  0011c	59		 pop	 ecx
  0011d	5f		 pop	 edi
  0011e	5e		 pop	 esi
  0011f	5b		 pop	 ebx
  00120	81 c4 d8 00 00
	00		 add	 esp, 216		; 000000d8H
  00126	3b ec		 cmp	 ebp, esp
  00128	e8 00 00 00 00	 call	 __RTC_CheckEsp
  0012d	8b e5		 mov	 esp, ebp
  0012f	5d		 pop	 ebp
  00130	c2 04 00	 ret	 4
_TEXT	ENDS
;	COMDAT text$x
text$x	SEGMENT
__unwindfunclet$??0sentry@?$basic_ostream@DU?$char_traits@D@std@@@std@@QAE@AAV12@@Z$0:
  00000	8b 4d ec	 mov	 ecx, DWORD PTR _this$[ebp]
  00003	e9 00 00 00 00	 jmp	 ??1_Sentry_base@?$basic_ostream@DU?$char_traits@D@std@@@std@@QAE@XZ ; std::basic_ostream<char,std::char_traits<char> >::_Sentry_base::~_Sentry_base
__ehhandler$??0sentry@?$basic_ostream@DU?$char_traits@D@std@@@std@@QAE@AAV12@@Z:
  00008	8b 54 24 08	 mov	 edx, DWORD PTR [esp+8]
  0000c	8d 42 0c	 lea	 eax, DWORD PTR [edx+12]
  0000f	8b 8a 24 ff ff
	ff		 mov	 ecx, DWORD PTR [edx-220]
  00015	33 c8		 xor	 ecx, eax
  00017	e8 00 00 00 00	 call	 @__security_check_cookie@4
  0001c	b8 00 00 00 00	 mov	 eax, OFFSET __ehfuncinfo$??0sentry@?$basic_ostream@DU?$char_traits@D@std@@@std@@QAE@AAV12@@Z
  00021	e9 00 00 00 00	 jmp	 ___CxxFrameHandler3
text$x	ENDS
??0sentry@?$basic_ostream@DU?$char_traits@D@std@@@std@@QAE@AAV12@@Z ENDP ; std::basic_ostream<char,std::char_traits<char> >::sentry::sentry
; Function compile flags: /Odtp /RTCsu /ZI
;	COMDAT ??1_Sentry_base@?$basic_ostream@DU?$char_traits@D@std@@@std@@QAE@XZ
_TEXT	SEGMENT
tv92 = -224						; size = 4
tv86 = -220						; size = 4
tv72 = -220						; size = 4
_this$ = -20						; size = 4
__$EHRec$ = -12						; size = 12
??1_Sentry_base@?$basic_ostream@DU?$char_traits@D@std@@@std@@QAE@XZ PROC ; std::basic_ostream<char,std::char_traits<char> >::_Sentry_base::~_Sentry_base, COMDAT
; _this$ = ecx
; File c:\program files (x86)\microsoft visual studio\2017\community\vc\tools\msvc\14.13.26128\include\ostream
; Line 104
  00000	55		 push	 ebp
  00001	8b ec		 mov	 ebp, esp
  00003	6a ff		 push	 -1
  00005	68 00 00 00 00	 push	 __ehhandler$??1_Sentry_base@?$basic_ostream@DU?$char_traits@D@std@@@std@@QAE@XZ
  0000a	64 a1 00 00 00
	00		 mov	 eax, DWORD PTR fs:0
  00010	50		 push	 eax
  00011	81 ec d4 00 00
	00		 sub	 esp, 212		; 000000d4H
  00017	53		 push	 ebx
  00018	56		 push	 esi
  00019	57		 push	 edi
  0001a	51		 push	 ecx
  0001b	8d bd 20 ff ff
	ff		 lea	 edi, DWORD PTR [ebp-224]
  00021	b9 35 00 00 00	 mov	 ecx, 53			; 00000035H
  00026	b8 cc cc cc cc	 mov	 eax, -858993460		; ccccccccH
  0002b	f3 ab		 rep stosd
  0002d	59		 pop	 ecx
  0002e	a1 00 00 00 00	 mov	 eax, DWORD PTR ___security_cookie
  00033	33 c5		 xor	 eax, ebp
  00035	50		 push	 eax
  00036	8d 45 f4	 lea	 eax, DWORD PTR __$EHRec$[ebp]
  00039	64 a3 00 00 00
	00		 mov	 DWORD PTR fs:0, eax
  0003f	89 4d ec	 mov	 DWORD PTR _this$[ebp], ecx
; Line 105
  00042	8b 45 ec	 mov	 eax, DWORD PTR _this$[ebp]
  00045	8b 08		 mov	 ecx, DWORD PTR [eax]
  00047	89 8d 24 ff ff
	ff		 mov	 DWORD PTR tv72[ebp], ecx
  0004d	8b 95 24 ff ff
	ff		 mov	 edx, DWORD PTR tv72[ebp]
  00053	8b 02		 mov	 eax, DWORD PTR [edx]
  00055	8b 8d 24 ff ff
	ff		 mov	 ecx, DWORD PTR tv72[ebp]
  0005b	03 48 04	 add	 ecx, DWORD PTR [eax+4]
  0005e	8b f4		 mov	 esi, esp
  00060	ff 15 00 00 00
	00		 call	 DWORD PTR __imp_?rdbuf@?$basic_ios@DU?$char_traits@D@std@@@std@@QBEPAV?$basic_streambuf@DU?$char_traits@D@std@@@2@XZ
  00066	3b f4		 cmp	 esi, esp
  00068	e8 00 00 00 00	 call	 __RTC_CheckEsp
  0006d	85 c0		 test	 eax, eax
  0006f	74 4d		 je	 SHORT $LN3@Sentry_bas
; Line 106
  00071	8b 45 ec	 mov	 eax, DWORD PTR _this$[ebp]
  00074	8b 08		 mov	 ecx, DWORD PTR [eax]
  00076	89 8d 24 ff ff
	ff		 mov	 DWORD PTR tv86[ebp], ecx
  0007c	8b 95 24 ff ff
	ff		 mov	 edx, DWORD PTR tv86[ebp]
  00082	8b 02		 mov	 eax, DWORD PTR [edx]
  00084	8b 8d 24 ff ff
	ff		 mov	 ecx, DWORD PTR tv86[ebp]
  0008a	03 48 04	 add	 ecx, DWORD PTR [eax+4]
  0008d	8b f4		 mov	 esi, esp
  0008f	ff 15 00 00 00
	00		 call	 DWORD PTR __imp_?rdbuf@?$basic_ios@DU?$char_traits@D@std@@@std@@QBEPAV?$basic_streambuf@DU?$char_traits@D@std@@@2@XZ
  00095	3b f4		 cmp	 esi, esp
  00097	e8 00 00 00 00	 call	 __RTC_CheckEsp
  0009c	89 85 20 ff ff
	ff		 mov	 DWORD PTR tv92[ebp], eax
  000a2	8b 8d 20 ff ff
	ff		 mov	 ecx, DWORD PTR tv92[ebp]
  000a8	8b 11		 mov	 edx, DWORD PTR [ecx]
  000aa	8b f4		 mov	 esi, esp
  000ac	8b 8d 20 ff ff
	ff		 mov	 ecx, DWORD PTR tv92[ebp]
  000b2	8b 42 08	 mov	 eax, DWORD PTR [edx+8]
  000b5	ff d0		 call	 eax
  000b7	3b f4		 cmp	 esi, esp
  000b9	e8 00 00 00 00	 call	 __RTC_CheckEsp
$LN3@Sentry_bas:
; Line 107
  000be	8b 4d f4	 mov	 ecx, DWORD PTR __$EHRec$[ebp]
  000c1	64 89 0d 00 00
	00 00		 mov	 DWORD PTR fs:0, ecx
  000c8	59		 pop	 ecx
  000c9	5f		 pop	 edi
  000ca	5e		 pop	 esi
  000cb	5b		 pop	 ebx
  000cc	81 c4 e0 00 00
	00		 add	 esp, 224		; 000000e0H
  000d2	3b ec		 cmp	 ebp, esp
  000d4	e8 00 00 00 00	 call	 __RTC_CheckEsp
  000d9	8b e5		 mov	 esp, ebp
  000db	5d		 pop	 ebp
  000dc	c3		 ret	 0
_TEXT	ENDS
;	COMDAT text$x
text$x	SEGMENT
__ehhandler$??1_Sentry_base@?$basic_ostream@DU?$char_traits@D@std@@@std@@QAE@XZ:
  00000	8b 54 24 08	 mov	 edx, DWORD PTR [esp+8]
  00004	8d 42 0c	 lea	 eax, DWORD PTR [edx+12]
  00007	8b 8a 1c ff ff
	ff		 mov	 ecx, DWORD PTR [edx-228]
  0000d	33 c8		 xor	 ecx, eax
  0000f	e8 00 00 00 00	 call	 @__security_check_cookie@4
  00014	b8 00 00 00 00	 mov	 eax, OFFSET __ehfuncinfo$??1_Sentry_base@?$basic_ostream@DU?$char_traits@D@std@@@std@@QAE@XZ
  00019	e9 00 00 00 00	 jmp	 ___CxxFrameHandler3
text$x	ENDS
??1_Sentry_base@?$basic_ostream@DU?$char_traits@D@std@@@std@@QAE@XZ ENDP ; std::basic_ostream<char,std::char_traits<char> >::_Sentry_base::~_Sentry_base
; Function compile flags: /Odtp /RTCsu /ZI
;	COMDAT ??0_Sentry_base@?$basic_ostream@DU?$char_traits@D@std@@@std@@QAE@AAV12@@Z
_TEXT	SEGMENT
tv93 = -212						; size = 4
tv87 = -208						; size = 4
tv73 = -208						; size = 4
_this$ = -8						; size = 4
__Ostr$ = 8						; size = 4
??0_Sentry_base@?$basic_ostream@DU?$char_traits@D@std@@@std@@QAE@AAV12@@Z PROC ; std::basic_ostream<char,std::char_traits<char> >::_Sentry_base::_Sentry_base, COMDAT
; _this$ = ecx
; File c:\program files (x86)\microsoft visual studio\2017\community\vc\tools\msvc\14.13.26128\include\ostream
; Line 98
  00000	55		 push	 ebp
  00001	8b ec		 mov	 ebp, esp
  00003	81 ec d4 00 00
	00		 sub	 esp, 212		; 000000d4H
  00009	53		 push	 ebx
  0000a	56		 push	 esi
  0000b	57		 push	 edi
  0000c	51		 push	 ecx
  0000d	8d bd 2c ff ff
	ff		 lea	 edi, DWORD PTR [ebp-212]
  00013	b9 35 00 00 00	 mov	 ecx, 53			; 00000035H
  00018	b8 cc cc cc cc	 mov	 eax, -858993460		; ccccccccH
  0001d	f3 ab		 rep stosd
  0001f	59		 pop	 ecx
  00020	89 4d f8	 mov	 DWORD PTR _this$[ebp], ecx
; Line 97
  00023	8b 45 f8	 mov	 eax, DWORD PTR _this$[ebp]
  00026	8b 4d 08	 mov	 ecx, DWORD PTR __Ostr$[ebp]
  00029	89 08		 mov	 DWORD PTR [eax], ecx
; Line 99
  0002b	8b 45 f8	 mov	 eax, DWORD PTR _this$[ebp]
  0002e	8b 08		 mov	 ecx, DWORD PTR [eax]
  00030	89 8d 30 ff ff
	ff		 mov	 DWORD PTR tv73[ebp], ecx
  00036	8b 95 30 ff ff
	ff		 mov	 edx, DWORD PTR tv73[ebp]
  0003c	8b 02		 mov	 eax, DWORD PTR [edx]
  0003e	8b 8d 30 ff ff
	ff		 mov	 ecx, DWORD PTR tv73[ebp]
  00044	03 48 04	 add	 ecx, DWORD PTR [eax+4]
  00047	8b f4		 mov	 esi, esp
  00049	ff 15 00 00 00
	00		 call	 DWORD PTR __imp_?rdbuf@?$basic_ios@DU?$char_traits@D@std@@@std@@QBEPAV?$basic_streambuf@DU?$char_traits@D@std@@@2@XZ
  0004f	3b f4		 cmp	 esi, esp
  00051	e8 00 00 00 00	 call	 __RTC_CheckEsp
  00056	85 c0		 test	 eax, eax
  00058	74 4d		 je	 SHORT $LN1@Sentry_bas
; Line 100
  0005a	8b 45 f8	 mov	 eax, DWORD PTR _this$[ebp]
  0005d	8b 08		 mov	 ecx, DWORD PTR [eax]
  0005f	89 8d 30 ff ff
	ff		 mov	 DWORD PTR tv87[ebp], ecx
  00065	8b 95 30 ff ff
	ff		 mov	 edx, DWORD PTR tv87[ebp]
  0006b	8b 02		 mov	 eax, DWORD PTR [edx]
  0006d	8b 8d 30 ff ff
	ff		 mov	 ecx, DWORD PTR tv87[ebp]
  00073	03 48 04	 add	 ecx, DWORD PTR [eax+4]
  00076	8b f4		 mov	 esi, esp
  00078	ff 15 00 00 00
	00		 call	 DWORD PTR __imp_?rdbuf@?$basic_ios@DU?$char_traits@D@std@@@std@@QBEPAV?$basic_streambuf@DU?$char_traits@D@std@@@2@XZ
  0007e	3b f4		 cmp	 esi, esp
  00080	e8 00 00 00 00	 call	 __RTC_CheckEsp
  00085	89 85 2c ff ff
	ff		 mov	 DWORD PTR tv93[ebp], eax
  0008b	8b 8d 2c ff ff
	ff		 mov	 ecx, DWORD PTR tv93[ebp]
  00091	8b 11		 mov	 edx, DWORD PTR [ecx]
  00093	8b f4		 mov	 esi, esp
  00095	8b 8d 2c ff ff
	ff		 mov	 ecx, DWORD PTR tv93[ebp]
  0009b	8b 42 04	 mov	 eax, DWORD PTR [edx+4]
  0009e	ff d0		 call	 eax
  000a0	3b f4		 cmp	 esi, esp
  000a2	e8 00 00 00 00	 call	 __RTC_CheckEsp
$LN1@Sentry_bas:
; Line 101
  000a7	8b 45 f8	 mov	 eax, DWORD PTR _this$[ebp]
  000aa	5f		 pop	 edi
  000ab	5e		 pop	 esi
  000ac	5b		 pop	 ebx
  000ad	81 c4 d4 00 00
	00		 add	 esp, 212		; 000000d4H
  000b3	3b ec		 cmp	 ebp, esp
  000b5	e8 00 00 00 00	 call	 __RTC_CheckEsp
  000ba	8b e5		 mov	 esp, ebp
  000bc	5d		 pop	 ebp
  000bd	c2 04 00	 ret	 4
??0_Sentry_base@?$basic_ostream@DU?$char_traits@D@std@@@std@@QAE@AAV12@@Z ENDP ; std::basic_ostream<char,std::char_traits<char> >::_Sentry_base::_Sentry_base
_TEXT	ENDS
; Function compile flags: /Odtp /RTCsu /ZI
;	COMDAT ??$_Insert_string@DU?$char_traits@D@std@@I@std@@YAAAV?$basic_ostream@DU?$char_traits@D@std@@@0@AAV10@QBDI@Z
_TEXT	SEGMENT
tv406 = -332						; size = 8
tv290 = -324						; size = 4
tv287 = -324						; size = 8
tv285 = -324						; size = 4
tv134 = -324						; size = 4
tv324 = -320						; size = 8
tv289 = -320						; size = 4
tv284 = -320						; size = 4
tv286 = -316						; size = 4
tv136 = -316						; size = 4
tv288 = -313						; size = 1
tv283 = -313						; size = 1
$T2 = -308						; size = 4
$T3 = -296						; size = 4
$T4 = -284						; size = 4
$T5 = -272						; size = 4
$T6 = -260						; size = 4
__Ok$ = -56						; size = 8
__Pad$ = -40						; size = 4
__State$ = -28						; size = 4
__$ArrayPad$ = -20					; size = 4
__$EHRec$ = -16						; size = 16
__Ostr$ = 8						; size = 4
__Data$ = 12						; size = 4
__Size$ = 16						; size = 4
??$_Insert_string@DU?$char_traits@D@std@@I@std@@YAAAV?$basic_ostream@DU?$char_traits@D@std@@@0@AAV10@QBDI@Z PROC ; std::_Insert_string<char,std::char_traits<char>,unsigned int>, COMDAT
; File c:\program files (x86)\microsoft visual studio\2017\community\vc\tools\msvc\14.13.26128\include\xstring_insert.h
; Line 24
  00000	55		 push	 ebp
  00001	8b ec		 mov	 ebp, esp
  00003	6a ff		 push	 -1
  00005	68 00 00 00 00	 push	 __ehhandler$??$_Insert_string@DU?$char_traits@D@std@@I@std@@YAAAV?$basic_ostream@DU?$char_traits@D@std@@@0@AAV10@QBDI@Z
  0000a	64 a1 00 00 00
	00		 mov	 eax, DWORD PTR fs:0
  00010	50		 push	 eax
  00011	51		 push	 ecx
  00012	81 ec 3c 01 00
	00		 sub	 esp, 316		; 0000013cH
  00018	53		 push	 ebx
  00019	56		 push	 esi
  0001a	57		 push	 edi
  0001b	8d bd b4 fe ff
	ff		 lea	 edi, DWORD PTR [ebp-332]
  00021	b9 4f 00 00 00	 mov	 ecx, 79			; 0000004fH
  00026	b8 cc cc cc cc	 mov	 eax, -858993460		; ccccccccH
  0002b	f3 ab		 rep stosd
  0002d	a1 00 00 00 00	 mov	 eax, DWORD PTR ___security_cookie
  00032	33 c5		 xor	 eax, ebp
  00034	89 45 ec	 mov	 DWORD PTR __$ArrayPad$[ebp], eax
  00037	50		 push	 eax
  00038	8d 45 f4	 lea	 eax, DWORD PTR __$EHRec$[ebp+4]
  0003b	64 a3 00 00 00
	00		 mov	 DWORD PTR fs:0, eax
  00041	89 65 f0	 mov	 DWORD PTR __$EHRec$[ebp], esp
; Line 25
  00044	c7 45 e4 00 00
	00 00		 mov	 DWORD PTR __State$[ebp], 0
; Line 26
  0004b	8b 45 08	 mov	 eax, DWORD PTR __Ostr$[ebp]
  0004e	8b 08		 mov	 ecx, DWORD PTR [eax]
  00050	8b 55 08	 mov	 edx, DWORD PTR __Ostr$[ebp]
  00053	03 51 04	 add	 edx, DWORD PTR [ecx+4]
  00056	8b f4		 mov	 esi, esp
  00058	8b ca		 mov	 ecx, edx
  0005a	ff 15 00 00 00
	00		 call	 DWORD PTR __imp_?width@ios_base@std@@QBE_JXZ
  00060	3b f4		 cmp	 esi, esp
  00062	e8 00 00 00 00	 call	 __RTC_CheckEsp
  00067	89 85 c0 fe ff
	ff		 mov	 DWORD PTR tv324[ebp], eax
  0006d	89 95 c4 fe ff
	ff		 mov	 DWORD PTR tv324[ebp+4], edx
  00073	83 bd c4 fe ff
	ff 00		 cmp	 DWORD PTR tv324[ebp+4], 0
  0007a	7c 53		 jl	 SHORT $LN17@Insert_str
  0007c	7f 09		 jg	 SHORT $LN24@Insert_str
  0007e	83 bd c0 fe ff
	ff 00		 cmp	 DWORD PTR tv324[ebp], 0
  00085	76 48		 jbe	 SHORT $LN17@Insert_str
$LN24@Insert_str:
  00087	8b 45 08	 mov	 eax, DWORD PTR __Ostr$[ebp]
  0008a	8b 08		 mov	 ecx, DWORD PTR [eax]
  0008c	8b 55 08	 mov	 edx, DWORD PTR __Ostr$[ebp]
  0008f	03 51 04	 add	 edx, DWORD PTR [ecx+4]
  00092	8b f4		 mov	 esi, esp
  00094	8b ca		 mov	 ecx, edx
  00096	ff 15 00 00 00
	00		 call	 DWORD PTR __imp_?width@ios_base@std@@QBE_JXZ
  0009c	3b f4		 cmp	 esi, esp
  0009e	e8 00 00 00 00	 call	 __RTC_CheckEsp
  000a3	3b 45 10	 cmp	 eax, DWORD PTR __Size$[ebp]
  000a6	76 27		 jbe	 SHORT $LN17@Insert_str
  000a8	8b 45 08	 mov	 eax, DWORD PTR __Ostr$[ebp]
  000ab	8b 08		 mov	 ecx, DWORD PTR [eax]
  000ad	8b 55 08	 mov	 edx, DWORD PTR __Ostr$[ebp]
  000b0	03 51 04	 add	 edx, DWORD PTR [ecx+4]
  000b3	8b f4		 mov	 esi, esp
  000b5	8b ca		 mov	 ecx, edx
  000b7	ff 15 00 00 00
	00		 call	 DWORD PTR __imp_?width@ios_base@std@@QBE_JXZ
  000bd	3b f4		 cmp	 esi, esp
  000bf	e8 00 00 00 00	 call	 __RTC_CheckEsp
  000c4	2b 45 10	 sub	 eax, DWORD PTR __Size$[ebp]
  000c7	89 85 bc fe ff
	ff		 mov	 DWORD PTR tv134[ebp], eax
  000cd	eb 0a		 jmp	 SHORT $LN18@Insert_str
$LN17@Insert_str:
  000cf	c7 85 bc fe ff
	ff 00 00 00 00	 mov	 DWORD PTR tv134[ebp], 0
$LN18@Insert_str:
  000d9	8b 85 bc fe ff
	ff		 mov	 eax, DWORD PTR tv134[ebp]
  000df	89 45 d8	 mov	 DWORD PTR __Pad$[ebp], eax
; Line 28
  000e2	8b 45 08	 mov	 eax, DWORD PTR __Ostr$[ebp]
  000e5	50		 push	 eax
  000e6	8d 4d c8	 lea	 ecx, DWORD PTR __Ok$[ebp]
  000e9	e8 00 00 00 00	 call	 ??0sentry@?$basic_ostream@DU?$char_traits@D@std@@@std@@QAE@AAV12@@Z ; std::basic_ostream<char,std::char_traits<char> >::sentry::sentry
  000ee	c7 45 fc 00 00
	00 00		 mov	 DWORD PTR __$EHRec$[ebp+12], 0
; Line 30
  000f5	8d 4d c8	 lea	 ecx, DWORD PTR __Ok$[ebp]
  000f8	e8 00 00 00 00	 call	 ??Bsentry@?$basic_ostream@DU?$char_traits@D@std@@@std@@QBE_NXZ ; std::basic_ostream<char,std::char_traits<char> >::sentry::operator bool
  000fd	0f b6 c0	 movzx	 eax, al
  00100	85 c0		 test	 eax, eax
  00102	75 0e		 jne	 SHORT $LN8@Insert_str
; Line 31
  00104	8b 45 e4	 mov	 eax, DWORD PTR __State$[ebp]
  00107	83 c8 04	 or	 eax, 4
  0010a	89 45 e4	 mov	 DWORD PTR __State$[ebp], eax
; Line 32
  0010d	e9 a5 02 00 00	 jmp	 $LN9@Insert_str
$LN8@Insert_str:
; Line 34
  00112	c6 45 fc 01	 mov	 BYTE PTR __$EHRec$[ebp+12], 1
; Line 35
  00116	8b 45 08	 mov	 eax, DWORD PTR __Ostr$[ebp]
  00119	8b 08		 mov	 ecx, DWORD PTR [eax]
  0011b	8b 55 08	 mov	 edx, DWORD PTR __Ostr$[ebp]
  0011e	03 51 04	 add	 edx, DWORD PTR [ecx+4]
  00121	8b f4		 mov	 esi, esp
  00123	8b ca		 mov	 ecx, edx
  00125	ff 15 00 00 00
	00		 call	 DWORD PTR __imp_?flags@ios_base@std@@QBEHXZ
  0012b	3b f4		 cmp	 esi, esp
  0012d	e8 00 00 00 00	 call	 __RTC_CheckEsp
  00132	89 85 c4 fe ff
	ff		 mov	 DWORD PTR tv136[ebp], eax
  00138	8b 85 c4 fe ff
	ff		 mov	 eax, DWORD PTR tv136[ebp]
  0013e	25 c0 01 00 00	 and	 eax, 448		; 000001c0H
  00143	83 f8 40	 cmp	 eax, 64			; 00000040H
  00146	0f 84 c0 00 00
	00		 je	 $LN11@Insert_str
; Line 36
  0014c	eb 09		 jmp	 SHORT $LN4@Insert_str
$LN2@Insert_str:
  0014e	8b 45 d8	 mov	 eax, DWORD PTR __Pad$[ebp]
  00151	83 e8 01	 sub	 eax, 1
  00154	89 45 d8	 mov	 DWORD PTR __Pad$[ebp], eax
$LN4@Insert_str:
  00157	83 7d d8 00	 cmp	 DWORD PTR __Pad$[ebp], 0
  0015b	0f 86 ab 00 00
	00		 jbe	 $LN11@Insert_str
; Line 37
  00161	8b 45 08	 mov	 eax, DWORD PTR __Ostr$[ebp]
  00164	8b 08		 mov	 ecx, DWORD PTR [eax]
  00166	8b 55 08	 mov	 edx, DWORD PTR __Ostr$[ebp]
  00169	03 51 04	 add	 edx, DWORD PTR [ecx+4]
  0016c	8b f4		 mov	 esi, esp
  0016e	8b ca		 mov	 ecx, edx
  00170	ff 15 00 00 00
	00		 call	 DWORD PTR __imp_?fill@?$basic_ios@DU?$char_traits@D@std@@@std@@QBEDXZ
  00176	3b f4		 cmp	 esi, esp
  00178	e8 00 00 00 00	 call	 __RTC_CheckEsp
  0017d	88 85 c7 fe ff
	ff		 mov	 BYTE PTR tv283[ebp], al
  00183	8b 45 08	 mov	 eax, DWORD PTR __Ostr$[ebp]
  00186	8b 08		 mov	 ecx, DWORD PTR [eax]
  00188	8b 55 08	 mov	 edx, DWORD PTR __Ostr$[ebp]
  0018b	03 51 04	 add	 edx, DWORD PTR [ecx+4]
  0018e	8b f4		 mov	 esi, esp
  00190	8b ca		 mov	 ecx, edx
  00192	ff 15 00 00 00
	00		 call	 DWORD PTR __imp_?rdbuf@?$basic_ios@DU?$char_traits@D@std@@@std@@QBEPAV?$basic_streambuf@DU?$char_traits@D@std@@@2@XZ
  00198	3b f4		 cmp	 esi, esp
  0019a	e8 00 00 00 00	 call	 __RTC_CheckEsp
  0019f	89 85 c0 fe ff
	ff		 mov	 DWORD PTR tv284[ebp], eax
  001a5	8b f4		 mov	 esi, esp
  001a7	0f b6 85 c7 fe
	ff ff		 movzx	 eax, BYTE PTR tv283[ebp]
  001ae	50		 push	 eax
  001af	8b 8d c0 fe ff
	ff		 mov	 ecx, DWORD PTR tv284[ebp]
  001b5	ff 15 00 00 00
	00		 call	 DWORD PTR __imp_?sputc@?$basic_streambuf@DU?$char_traits@D@std@@@std@@QAEHD@Z
  001bb	3b f4		 cmp	 esi, esp
  001bd	e8 00 00 00 00	 call	 __RTC_CheckEsp
  001c2	89 85 bc fe ff
	ff		 mov	 DWORD PTR tv285[ebp], eax
  001c8	8b 8d bc fe ff
	ff		 mov	 ecx, DWORD PTR tv285[ebp]
  001ce	89 8d fc fe ff
	ff		 mov	 DWORD PTR $T6[ebp], ecx
  001d4	e8 00 00 00 00	 call	 ?eof@?$char_traits@D@std@@SAHXZ ; std::char_traits<char>::eof
  001d9	89 85 f0 fe ff
	ff		 mov	 DWORD PTR $T5[ebp], eax
  001df	8d 95 fc fe ff
	ff		 lea	 edx, DWORD PTR $T6[ebp]
  001e5	52		 push	 edx
  001e6	8d 85 f0 fe ff
	ff		 lea	 eax, DWORD PTR $T5[ebp]
  001ec	50		 push	 eax
  001ed	e8 00 00 00 00	 call	 ?eq_int_type@?$char_traits@D@std@@SA_NABH0@Z ; std::char_traits<char>::eq_int_type
  001f2	83 c4 08	 add	 esp, 8
  001f5	0f b6 c8	 movzx	 ecx, al
  001f8	85 c9		 test	 ecx, ecx
  001fa	74 0b		 je	 SHORT $LN12@Insert_str
; Line 40
  001fc	8b 45 e4	 mov	 eax, DWORD PTR __State$[ebp]
  001ff	83 c8 04	 or	 eax, 4
  00202	89 45 e4	 mov	 DWORD PTR __State$[ebp], eax
; Line 41
  00205	eb 05		 jmp	 SHORT $LN11@Insert_str
$LN12@Insert_str:
; Line 44
  00207	e9 42 ff ff ff	 jmp	 $LN2@Insert_str
$LN11@Insert_str:
; Line 45
  0020c	83 7d e4 00	 cmp	 DWORD PTR __State$[ebp], 0
  00210	0f 85 89 00 00
	00		 jne	 $LN13@Insert_str
  00216	8b 45 08	 mov	 eax, DWORD PTR __Ostr$[ebp]
  00219	8b 08		 mov	 ecx, DWORD PTR [eax]
  0021b	8b 55 08	 mov	 edx, DWORD PTR __Ostr$[ebp]
  0021e	03 51 04	 add	 edx, DWORD PTR [ecx+4]
  00221	8b f4		 mov	 esi, esp
  00223	8b ca		 mov	 ecx, edx
  00225	ff 15 00 00 00
	00		 call	 DWORD PTR __imp_?rdbuf@?$basic_ios@DU?$char_traits@D@std@@@std@@QBEPAV?$basic_streambuf@DU?$char_traits@D@std@@@2@XZ
  0022b	3b f4		 cmp	 esi, esp
  0022d	e8 00 00 00 00	 call	 __RTC_CheckEsp
  00232	89 85 c4 fe ff
	ff		 mov	 DWORD PTR tv286[ebp], eax
  00238	8b 45 10	 mov	 eax, DWORD PTR __Size$[ebp]
  0023b	33 c9		 xor	 ecx, ecx
  0023d	8b f4		 mov	 esi, esp
  0023f	51		 push	 ecx
  00240	50		 push	 eax
  00241	8b 55 0c	 mov	 edx, DWORD PTR __Data$[ebp]
  00244	52		 push	 edx
  00245	8b 8d c4 fe ff
	ff		 mov	 ecx, DWORD PTR tv286[ebp]
  0024b	ff 15 00 00 00
	00		 call	 DWORD PTR __imp_?sputn@?$basic_streambuf@DU?$char_traits@D@std@@@std@@QAE_JPBD_J@Z
  00251	3b f4		 cmp	 esi, esp
  00253	e8 00 00 00 00	 call	 __RTC_CheckEsp
  00258	89 85 bc fe ff
	ff		 mov	 DWORD PTR tv287[ebp], eax
  0025e	89 95 c0 fe ff
	ff		 mov	 DWORD PTR tv287[ebp+4], edx
  00264	8b 45 10	 mov	 eax, DWORD PTR __Size$[ebp]
  00267	33 c9		 xor	 ecx, ecx
  00269	89 85 b4 fe ff
	ff		 mov	 DWORD PTR tv406[ebp], eax
  0026f	89 8d b8 fe ff
	ff		 mov	 DWORD PTR tv406[ebp+4], ecx
  00275	8b 95 bc fe ff
	ff		 mov	 edx, DWORD PTR tv287[ebp]
  0027b	3b 95 b4 fe ff
	ff		 cmp	 edx, DWORD PTR tv406[ebp]
  00281	75 0e		 jne	 SHORT $LN25@Insert_str
  00283	8b 85 c0 fe ff
	ff		 mov	 eax, DWORD PTR tv287[ebp+4]
  00289	3b 85 b8 fe ff
	ff		 cmp	 eax, DWORD PTR tv406[ebp+4]
  0028f	74 0e		 je	 SHORT $LN13@Insert_str
$LN25@Insert_str:
; Line 47
  00291	8b 45 e4	 mov	 eax, DWORD PTR __State$[ebp]
  00294	83 c8 04	 or	 eax, 4
  00297	89 45 e4	 mov	 DWORD PTR __State$[ebp], eax
; Line 48
  0029a	e9 c0 00 00 00	 jmp	 $LN14@Insert_str
$LN13@Insert_str:
; Line 49
  0029f	eb 09		 jmp	 SHORT $LN7@Insert_str
$LN5@Insert_str:
  002a1	8b 45 d8	 mov	 eax, DWORD PTR __Pad$[ebp]
  002a4	83 e8 01	 sub	 eax, 1
  002a7	89 45 d8	 mov	 DWORD PTR __Pad$[ebp], eax
$LN7@Insert_str:
  002aa	83 7d d8 00	 cmp	 DWORD PTR __Pad$[ebp], 0
  002ae	0f 86 ab 00 00
	00		 jbe	 $LN14@Insert_str
; Line 50
  002b4	8b 45 08	 mov	 eax, DWORD PTR __Ostr$[ebp]
  002b7	8b 08		 mov	 ecx, DWORD PTR [eax]
  002b9	8b 55 08	 mov	 edx, DWORD PTR __Ostr$[ebp]
  002bc	03 51 04	 add	 edx, DWORD PTR [ecx+4]
  002bf	8b f4		 mov	 esi, esp
  002c1	8b ca		 mov	 ecx, edx
  002c3	ff 15 00 00 00
	00		 call	 DWORD PTR __imp_?fill@?$basic_ios@DU?$char_traits@D@std@@@std@@QBEDXZ
  002c9	3b f4		 cmp	 esi, esp
  002cb	e8 00 00 00 00	 call	 __RTC_CheckEsp
  002d0	88 85 c7 fe ff
	ff		 mov	 BYTE PTR tv288[ebp], al
  002d6	8b 45 08	 mov	 eax, DWORD PTR __Ostr$[ebp]
  002d9	8b 08		 mov	 ecx, DWORD PTR [eax]
  002db	8b 55 08	 mov	 edx, DWORD PTR __Ostr$[ebp]
  002de	03 51 04	 add	 edx, DWORD PTR [ecx+4]
  002e1	8b f4		 mov	 esi, esp
  002e3	8b ca		 mov	 ecx, edx
  002e5	ff 15 00 00 00
	00		 call	 DWORD PTR __imp_?rdbuf@?$basic_ios@DU?$char_traits@D@std@@@std@@QBEPAV?$basic_streambuf@DU?$char_traits@D@std@@@2@XZ
  002eb	3b f4		 cmp	 esi, esp
  002ed	e8 00 00 00 00	 call	 __RTC_CheckEsp
  002f2	89 85 c0 fe ff
	ff		 mov	 DWORD PTR tv289[ebp], eax
  002f8	8b f4		 mov	 esi, esp
  002fa	0f b6 85 c7 fe
	ff ff		 movzx	 eax, BYTE PTR tv288[ebp]
  00301	50		 push	 eax
  00302	8b 8d c0 fe ff
	ff		 mov	 ecx, DWORD PTR tv289[ebp]
  00308	ff 15 00 00 00
	00		 call	 DWORD PTR __imp_?sputc@?$basic_streambuf@DU?$char_traits@D@std@@@std@@QAEHD@Z
  0030e	3b f4		 cmp	 esi, esp
  00310	e8 00 00 00 00	 call	 __RTC_CheckEsp
  00315	89 85 bc fe ff
	ff		 mov	 DWORD PTR tv290[ebp], eax
  0031b	8b 8d bc fe ff
	ff		 mov	 ecx, DWORD PTR tv290[ebp]
  00321	89 8d e4 fe ff
	ff		 mov	 DWORD PTR $T4[ebp], ecx
  00327	e8 00 00 00 00	 call	 ?eof@?$char_traits@D@std@@SAHXZ ; std::char_traits<char>::eof
  0032c	89 85 d8 fe ff
	ff		 mov	 DWORD PTR $T3[ebp], eax
  00332	8d 95 e4 fe ff
	ff		 lea	 edx, DWORD PTR $T4[ebp]
  00338	52		 push	 edx
  00339	8d 85 d8 fe ff
	ff		 lea	 eax, DWORD PTR $T3[ebp]
  0033f	50		 push	 eax
  00340	e8 00 00 00 00	 call	 ?eq_int_type@?$char_traits@D@std@@SA_NABH0@Z ; std::char_traits<char>::eq_int_type
  00345	83 c4 08	 add	 esp, 8
  00348	0f b6 c8	 movzx	 ecx, al
  0034b	85 c9		 test	 ecx, ecx
  0034d	74 0b		 je	 SHORT $LN15@Insert_str
; Line 53
  0034f	8b 45 e4	 mov	 eax, DWORD PTR __State$[ebp]
  00352	83 c8 04	 or	 eax, 4
  00355	89 45 e4	 mov	 DWORD PTR __State$[ebp], eax
; Line 54
  00358	eb 05		 jmp	 SHORT $LN14@Insert_str
$LN15@Insert_str:
; Line 55
  0035a	e9 42 ff ff ff	 jmp	 $LN5@Insert_str
$LN14@Insert_str:
; Line 56
  0035f	8b f4		 mov	 esi, esp
  00361	6a 00		 push	 0
  00363	6a 00		 push	 0
  00365	8b 45 08	 mov	 eax, DWORD PTR __Ostr$[ebp]
  00368	8b 08		 mov	 ecx, DWORD PTR [eax]
  0036a	8b 55 08	 mov	 edx, DWORD PTR __Ostr$[ebp]
  0036d	03 51 04	 add	 edx, DWORD PTR [ecx+4]
  00370	8b ca		 mov	 ecx, edx
  00372	ff 15 00 00 00
	00		 call	 DWORD PTR __imp_?width@ios_base@std@@QAE_J_J@Z
  00378	3b f4		 cmp	 esi, esp
  0037a	e8 00 00 00 00	 call	 __RTC_CheckEsp
  0037f	eb 26		 jmp	 SHORT $LN19@Insert_str
__catch$??$_Insert_string@DU?$char_traits@D@std@@I@std@@YAAAV?$basic_ostream@DU?$char_traits@D@std@@@0@AAV10@QBDI@Z$0:
; Line 57
  00381	8b f4		 mov	 esi, esp
  00383	6a 01		 push	 1
  00385	6a 04		 push	 4
  00387	8b 45 08	 mov	 eax, DWORD PTR __Ostr$[ebp]
  0038a	8b 08		 mov	 ecx, DWORD PTR [eax]
  0038c	8b 55 08	 mov	 edx, DWORD PTR __Ostr$[ebp]
  0038f	03 51 04	 add	 edx, DWORD PTR [ecx+4]
  00392	8b ca		 mov	 ecx, edx
  00394	ff 15 00 00 00
	00		 call	 DWORD PTR __imp_?setstate@?$basic_ios@DU?$char_traits@D@std@@@std@@QAEXH_N@Z
  0039a	3b f4		 cmp	 esi, esp
  0039c	e8 00 00 00 00	 call	 __RTC_CheckEsp
  003a1	b8 00 00 00 00	 mov	 eax, $LN23@Insert_str
  003a6	c3		 ret	 0
$LN19@Insert_str:
  003a7	c7 45 fc 00 00
	00 00		 mov	 DWORD PTR __$EHRec$[ebp+12], 0
  003ae	eb 07		 jmp	 SHORT $LN9@Insert_str
$LN23@Insert_str:
  003b0	c7 45 fc 00 00
	00 00		 mov	 DWORD PTR __$EHRec$[ebp+12], 0
$LN9@Insert_str:
; Line 60
  003b7	8b f4		 mov	 esi, esp
  003b9	6a 00		 push	 0
  003bb	8b 45 e4	 mov	 eax, DWORD PTR __State$[ebp]
  003be	50		 push	 eax
  003bf	8b 4d 08	 mov	 ecx, DWORD PTR __Ostr$[ebp]
  003c2	8b 11		 mov	 edx, DWORD PTR [ecx]
  003c4	8b 4d 08	 mov	 ecx, DWORD PTR __Ostr$[ebp]
  003c7	03 4a 04	 add	 ecx, DWORD PTR [edx+4]
  003ca	ff 15 00 00 00
	00		 call	 DWORD PTR __imp_?setstate@?$basic_ios@DU?$char_traits@D@std@@@std@@QAEXH_N@Z
  003d0	3b f4		 cmp	 esi, esp
  003d2	e8 00 00 00 00	 call	 __RTC_CheckEsp
; Line 61
  003d7	8b 45 08	 mov	 eax, DWORD PTR __Ostr$[ebp]
  003da	89 85 cc fe ff
	ff		 mov	 DWORD PTR $T2[ebp], eax
  003e0	c7 45 fc ff ff
	ff ff		 mov	 DWORD PTR __$EHRec$[ebp+12], -1
  003e7	8d 4d c8	 lea	 ecx, DWORD PTR __Ok$[ebp]
  003ea	e8 00 00 00 00	 call	 ??1sentry@?$basic_ostream@DU?$char_traits@D@std@@@std@@QAE@XZ ; std::basic_ostream<char,std::char_traits<char> >::sentry::~sentry
  003ef	8b 85 cc fe ff
	ff		 mov	 eax, DWORD PTR $T2[ebp]
; Line 62
  003f5	52		 push	 edx
  003f6	8b cd		 mov	 ecx, ebp
  003f8	50		 push	 eax
  003f9	8d 15 00 00 00
	00		 lea	 edx, DWORD PTR $LN29@Insert_str
  003ff	e8 00 00 00 00	 call	 @_RTC_CheckStackVars@8
  00404	58		 pop	 eax
  00405	5a		 pop	 edx
  00406	8b 4d f4	 mov	 ecx, DWORD PTR __$EHRec$[ebp+4]
  00409	64 89 0d 00 00
	00 00		 mov	 DWORD PTR fs:0, ecx
  00410	59		 pop	 ecx
  00411	5f		 pop	 edi
  00412	5e		 pop	 esi
  00413	5b		 pop	 ebx
  00414	8b 4d ec	 mov	 ecx, DWORD PTR __$ArrayPad$[ebp]
  00417	33 cd		 xor	 ecx, ebp
  00419	e8 00 00 00 00	 call	 @__security_check_cookie@4
  0041e	81 c4 4c 01 00
	00		 add	 esp, 332		; 0000014cH
  00424	3b ec		 cmp	 ebp, esp
  00426	e8 00 00 00 00	 call	 __RTC_CheckEsp
  0042b	8b e5		 mov	 esp, ebp
  0042d	5d		 pop	 ebp
  0042e	c3		 ret	 0
  0042f	90		 npad	 1
$LN29@Insert_str:
  00430	01 00 00 00	 DD	 1
  00434	00 00 00 00	 DD	 $LN28@Insert_str
$LN28@Insert_str:
  00438	c8 ff ff ff	 DD	 -56			; ffffffc8H
  0043c	08 00 00 00	 DD	 8
  00440	00 00 00 00	 DD	 $LN26@Insert_str
$LN26@Insert_str:
  00444	5f		 DB	 95			; 0000005fH
  00445	4f		 DB	 79			; 0000004fH
  00446	6b		 DB	 107			; 0000006bH
  00447	00		 DB	 0
_TEXT	ENDS
;	COMDAT text$x
text$x	SEGMENT
__unwindfunclet$??$_Insert_string@DU?$char_traits@D@std@@I@std@@YAAAV?$basic_ostream@DU?$char_traits@D@std@@@0@AAV10@QBDI@Z$2:
  00000	8d 4d c8	 lea	 ecx, DWORD PTR __Ok$[ebp]
  00003	e9 00 00 00 00	 jmp	 ??1sentry@?$basic_ostream@DU?$char_traits@D@std@@@std@@QAE@XZ ; std::basic_ostream<char,std::char_traits<char> >::sentry::~sentry
__ehhandler$??$_Insert_string@DU?$char_traits@D@std@@I@std@@YAAAV?$basic_ostream@DU?$char_traits@D@std@@@0@AAV10@QBDI@Z:
  00008	8b 54 24 08	 mov	 edx, DWORD PTR [esp+8]
  0000c	8d 42 0c	 lea	 eax, DWORD PTR [edx+12]
  0000f	8b 8a b0 fe ff
	ff		 mov	 ecx, DWORD PTR [edx-336]
  00015	33 c8		 xor	 ecx, eax
  00017	e8 00 00 00 00	 call	 @__security_check_cookie@4
  0001c	8b 4a f8	 mov	 ecx, DWORD PTR [edx-8]
  0001f	33 c8		 xor	 ecx, eax
  00021	e8 00 00 00 00	 call	 @__security_check_cookie@4
  00026	b8 00 00 00 00	 mov	 eax, OFFSET __ehfuncinfo$??$_Insert_string@DU?$char_traits@D@std@@I@std@@YAAAV?$basic_ostream@DU?$char_traits@D@std@@@0@AAV10@QBDI@Z
  0002b	e9 00 00 00 00	 jmp	 ___CxxFrameHandler3
text$x	ENDS
??$_Insert_string@DU?$char_traits@D@std@@I@std@@YAAAV?$basic_ostream@DU?$char_traits@D@std@@@0@AAV10@QBDI@Z ENDP ; std::_Insert_string<char,std::char_traits<char>,unsigned int>
; Function compile flags: /Odtp /RTCsu /ZI
;	COMDAT ??$_Get_size_of_n@$07@std@@YAII@Z
_TEXT	SEGMENT
__Result$ = -20						; size = 4
__Max_possible$ = -8					; size = 4
__Count$ = 8						; size = 4
??$_Get_size_of_n@$07@std@@YAII@Z PROC			; std::_Get_size_of_n<8>, COMDAT
; File c:\program files (x86)\microsoft visual studio\2017\community\vc\tools\msvc\14.13.26128\include\xmemory0
; Line 22
  00000	55		 push	 ebp
  00001	8b ec		 mov	 ebp, esp
  00003	81 ec d8 00 00
	00		 sub	 esp, 216		; 000000d8H
  00009	53		 push	 ebx
  0000a	56		 push	 esi
  0000b	57		 push	 edi
  0000c	8d bd 28 ff ff
	ff		 lea	 edi, DWORD PTR [ebp-216]
  00012	b9 36 00 00 00	 mov	 ecx, 54			; 00000036H
  00017	b8 cc cc cc cc	 mov	 eax, -858993460		; ccccccccH
  0001c	f3 ab		 rep stosd
; Line 23
  0001e	c7 45 f8 ff ff
	ff 1f		 mov	 DWORD PTR __Max_possible$[ebp], 536870911 ; 1fffffffH
; Line 24
  00025	8b 45 08	 mov	 eax, DWORD PTR __Count$[ebp]
  00028	c1 e0 03	 shl	 eax, 3
  0002b	89 45 ec	 mov	 DWORD PTR __Result$[ebp], eax
; Line 25
  0002e	81 7d 08 ff ff
	ff 1f		 cmp	 DWORD PTR __Count$[ebp], 536870911 ; 1fffffffH
  00035	76 07		 jbe	 SHORT $LN2@Get_size_o
; Line 28
  00037	c7 45 ec ff ff
	ff ff		 mov	 DWORD PTR __Result$[ebp], -1
$LN2@Get_size_o:
; Line 31
  0003e	8b 45 ec	 mov	 eax, DWORD PTR __Result$[ebp]
; Line 32
  00041	5f		 pop	 edi
  00042	5e		 pop	 esi
  00043	5b		 pop	 ebx
  00044	8b e5		 mov	 esp, ebp
  00046	5d		 pop	 ebp
  00047	c3		 ret	 0
??$_Get_size_of_n@$07@std@@YAII@Z ENDP			; std::_Get_size_of_n<8>
_TEXT	ENDS
; Function compile flags: /Odtp /RTCsu /ZI
;	COMDAT ??$_Reallocate_grow_by@V<lambda_15711c68e099a15a58f4d77303cb286d>@@D@?$basic_string@DU?$char_traits@D@std@@V?$allocator@D@2@@std@@QAEAAV01@IV<lambda_15711c68e099a15a58f4d77303cb286d>@@D@Z
_TEXT	SEGMENT
__Old_ptr$1 = -120					; size = 4
__Raw_new$ = -108					; size = 4
__New_ptr$ = -96					; size = 4
__Al$ = -84						; size = 4
__New_capacity$ = -72					; size = 4
__Old_capacity$ = -60					; size = 4
__New_size$ = -48					; size = 4
__Old_size$ = -36					; size = 4
__My_data$ = -24					; size = 4
_this$ = -12						; size = 4
__$ArrayPad$ = -4					; size = 4
__Size_increase$ = 8					; size = 4
__Fn$ = 12						; size = 1
_<_Args_0>$ = 16					; size = 1
??$_Reallocate_grow_by@V<lambda_15711c68e099a15a58f4d77303cb286d>@@D@?$basic_string@DU?$char_traits@D@std@@V?$allocator@D@2@@std@@QAEAAV01@IV<lambda_15711c68e099a15a58f4d77303cb286d>@@D@Z PROC ; std::basic_string<char,std::char_traits<char>,std::allocator<char> >::_Reallocate_grow_by<<lambda_15711c68e099a15a58f4d77303cb286d>,char>, COMDAT
; _this$ = ecx
; File c:\program files (x86)\microsoft visual studio\2017\community\vc\tools\msvc\14.13.26128\include\xstring
; Line 3834
  00000	55		 push	 ebp
  00001	8b ec		 mov	 ebp, esp
  00003	81 ec 3c 01 00
	00		 sub	 esp, 316		; 0000013cH
  00009	53		 push	 ebx
  0000a	56		 push	 esi
  0000b	57		 push	 edi
  0000c	51		 push	 ecx
  0000d	8d bd c4 fe ff
	ff		 lea	 edi, DWORD PTR [ebp-316]
  00013	b9 4f 00 00 00	 mov	 ecx, 79			; 0000004fH
  00018	b8 cc cc cc cc	 mov	 eax, -858993460		; ccccccccH
  0001d	f3 ab		 rep stosd
  0001f	59		 pop	 ecx
  00020	a1 00 00 00 00	 mov	 eax, DWORD PTR ___security_cookie
  00025	33 c5		 xor	 eax, ebp
  00027	89 45 fc	 mov	 DWORD PTR __$ArrayPad$[ebp], eax
  0002a	89 4d f4	 mov	 DWORD PTR _this$[ebp], ecx
; Line 3836
  0002d	8b 4d f4	 mov	 ecx, DWORD PTR _this$[ebp]
  00030	e8 00 00 00 00	 call	 ?_Get_data@?$_String_alloc@U?$_String_base_types@DV?$allocator@D@std@@@std@@@std@@QAEAAV?$_String_val@U?$_Simple_types@D@std@@@2@XZ ; std::_String_alloc<std::_String_base_types<char,std::allocator<char> > >::_Get_data
  00035	89 45 e8	 mov	 DWORD PTR __My_data$[ebp], eax
; Line 3837
  00038	8b 45 e8	 mov	 eax, DWORD PTR __My_data$[ebp]
  0003b	8b 48 14	 mov	 ecx, DWORD PTR [eax+20]
  0003e	89 4d dc	 mov	 DWORD PTR __Old_size$[ebp], ecx
; Line 3838
  00041	8b 4d f4	 mov	 ecx, DWORD PTR _this$[ebp]
  00044	e8 00 00 00 00	 call	 ?max_size@?$basic_string@DU?$char_traits@D@std@@V?$allocator@D@2@@std@@QBEIXZ ; std::basic_string<char,std::char_traits<char>,std::allocator<char> >::max_size
  00049	2b 45 dc	 sub	 eax, DWORD PTR __Old_size$[ebp]
  0004c	3b 45 08	 cmp	 eax, DWORD PTR __Size_increase$[ebp]
  0004f	73 05		 jae	 SHORT $LN2@Reallocate
; Line 3840
  00051	e8 00 00 00 00	 call	 ?_Xlen@?$basic_string@DU?$char_traits@D@std@@V?$allocator@D@2@@std@@SAXXZ ; std::basic_string<char,std::char_traits<char>,std::allocator<char> >::_Xlen
$LN2@Reallocate:
; Line 3843
  00056	8b 45 dc	 mov	 eax, DWORD PTR __Old_size$[ebp]
  00059	03 45 08	 add	 eax, DWORD PTR __Size_increase$[ebp]
  0005c	89 45 d0	 mov	 DWORD PTR __New_size$[ebp], eax
; Line 3844
  0005f	8b 45 e8	 mov	 eax, DWORD PTR __My_data$[ebp]
  00062	8b 48 18	 mov	 ecx, DWORD PTR [eax+24]
  00065	89 4d c4	 mov	 DWORD PTR __Old_capacity$[ebp], ecx
; Line 3845
  00068	8b 45 d0	 mov	 eax, DWORD PTR __New_size$[ebp]
  0006b	50		 push	 eax
  0006c	8b 4d f4	 mov	 ecx, DWORD PTR _this$[ebp]
  0006f	e8 00 00 00 00	 call	 ?_Calculate_growth@?$basic_string@DU?$char_traits@D@std@@V?$allocator@D@2@@std@@QBEII@Z ; std::basic_string<char,std::char_traits<char>,std::allocator<char> >::_Calculate_growth
  00074	89 45 b8	 mov	 DWORD PTR __New_capacity$[ebp], eax
; Line 3846
  00077	8b 4d f4	 mov	 ecx, DWORD PTR _this$[ebp]
  0007a	e8 00 00 00 00	 call	 ?_Getal@?$_String_alloc@U?$_String_base_types@DV?$allocator@D@std@@@std@@@std@@QAEAAV?$allocator@D@2@XZ ; std::_String_alloc<std::_String_base_types<char,std::allocator<char> > >::_Getal
  0007f	89 45 ac	 mov	 DWORD PTR __Al$[ebp], eax
; Line 3847
  00082	33 c0		 xor	 eax, eax
  00084	8b 4d b8	 mov	 ecx, DWORD PTR __New_capacity$[ebp]
  00087	83 c1 01	 add	 ecx, 1
  0008a	0f 92 c0	 setb	 al
  0008d	f7 d8		 neg	 eax
  0008f	0b c1		 or	 eax, ecx
  00091	50		 push	 eax
  00092	8b 4d ac	 mov	 ecx, DWORD PTR __Al$[ebp]
  00095	e8 00 00 00 00	 call	 ?allocate@?$allocator@D@std@@QAEPADI@Z ; std::allocator<char>::allocate
  0009a	89 45 a0	 mov	 DWORD PTR __New_ptr$[ebp], eax
; Line 3848
  0009d	8b 4d e8	 mov	 ecx, DWORD PTR __My_data$[ebp]
  000a0	e8 00 00 00 00	 call	 ?_Orphan_all@_Container_base12@std@@QAEXXZ ; std::_Container_base12::_Orphan_all
; Line 3849
  000a5	8b 45 e8	 mov	 eax, DWORD PTR __My_data$[ebp]
  000a8	8b 4d d0	 mov	 ecx, DWORD PTR __New_size$[ebp]
  000ab	89 48 14	 mov	 DWORD PTR [eax+20], ecx
; Line 3850
  000ae	8b 45 e8	 mov	 eax, DWORD PTR __My_data$[ebp]
  000b1	8b 4d b8	 mov	 ecx, DWORD PTR __New_capacity$[ebp]
  000b4	89 48 18	 mov	 DWORD PTR [eax+24], ecx
; Line 3851
  000b7	8b 45 a0	 mov	 eax, DWORD PTR __New_ptr$[ebp]
  000ba	50		 push	 eax
  000bb	e8 00 00 00 00	 call	 ??$_Unfancy@D@std@@YAPADPAD@Z ; std::_Unfancy<char>
  000c0	83 c4 04	 add	 esp, 4
  000c3	89 45 94	 mov	 DWORD PTR __Raw_new$[ebp], eax
; Line 3852
  000c6	83 7d c4 10	 cmp	 DWORD PTR __Old_capacity$[ebp], 16 ; 00000010H
  000ca	72 49		 jb	 SHORT $LN3@Reallocate
; Line 3854
  000cc	8b 45 e8	 mov	 eax, DWORD PTR __My_data$[ebp]
  000cf	8b 48 04	 mov	 ecx, DWORD PTR [eax+4]
  000d2	89 4d 88	 mov	 DWORD PTR __Old_ptr$1[ebp], ecx
; Line 3855
  000d5	0f b6 45 10	 movzx	 eax, BYTE PTR _<_Args_0>$[ebp]
  000d9	50		 push	 eax
  000da	8b 4d dc	 mov	 ecx, DWORD PTR __Old_size$[ebp]
  000dd	51		 push	 ecx
  000de	8b 55 88	 mov	 edx, DWORD PTR __Old_ptr$1[ebp]
  000e1	52		 push	 edx
  000e2	e8 00 00 00 00	 call	 ??$_Unfancy@D@std@@YAPADPAD@Z ; std::_Unfancy<char>
  000e7	83 c4 04	 add	 esp, 4
  000ea	50		 push	 eax
  000eb	8b 45 94	 mov	 eax, DWORD PTR __Raw_new$[ebp]
  000ee	50		 push	 eax
  000ef	8d 4d 0c	 lea	 ecx, DWORD PTR __Fn$[ebp]
  000f2	e8 00 00 00 00	 call	 ??R<lambda_15711c68e099a15a58f4d77303cb286d>@@QBEXQADQBDID@Z ; <lambda_15711c68e099a15a58f4d77303cb286d>::operator()
; Line 3856
  000f7	8b 45 c4	 mov	 eax, DWORD PTR __Old_capacity$[ebp]
  000fa	83 c0 01	 add	 eax, 1
  000fd	50		 push	 eax
  000fe	8b 4d 88	 mov	 ecx, DWORD PTR __Old_ptr$1[ebp]
  00101	51		 push	 ecx
  00102	8b 4d ac	 mov	 ecx, DWORD PTR __Al$[ebp]
  00105	e8 00 00 00 00	 call	 ?deallocate@?$allocator@D@std@@QAEXQADI@Z ; std::allocator<char>::deallocate
; Line 3857
  0010a	8b 45 e8	 mov	 eax, DWORD PTR __My_data$[ebp]
  0010d	8b 4d a0	 mov	 ecx, DWORD PTR __New_ptr$[ebp]
  00110	89 48 04	 mov	 DWORD PTR [eax+4], ecx
; Line 3859
  00113	eb 3c		 jmp	 SHORT $LN4@Reallocate
$LN3@Reallocate:
; Line 3861
  00115	0f b6 45 10	 movzx	 eax, BYTE PTR _<_Args_0>$[ebp]
  00119	50		 push	 eax
  0011a	8b 4d dc	 mov	 ecx, DWORD PTR __Old_size$[ebp]
  0011d	51		 push	 ecx
  0011e	8b 55 e8	 mov	 edx, DWORD PTR __My_data$[ebp]
  00121	83 c2 04	 add	 edx, 4
  00124	52		 push	 edx
  00125	8b 45 94	 mov	 eax, DWORD PTR __Raw_new$[ebp]
  00128	50		 push	 eax
  00129	8d 4d 0c	 lea	 ecx, DWORD PTR __Fn$[ebp]
  0012c	e8 00 00 00 00	 call	 ??R<lambda_15711c68e099a15a58f4d77303cb286d>@@QBEXQADQBDID@Z ; <lambda_15711c68e099a15a58f4d77303cb286d>::operator()
; Line 3862
  00131	8d 45 a0	 lea	 eax, DWORD PTR __New_ptr$[ebp]
  00134	50		 push	 eax
  00135	8b 4d e8	 mov	 ecx, DWORD PTR __My_data$[ebp]
  00138	83 c1 04	 add	 ecx, 4
  0013b	51		 push	 ecx
  0013c	e8 00 00 00 00	 call	 ??$addressof@PAD@std@@YAPAPADAAPAD@Z ; std::addressof<char *>
  00141	83 c4 04	 add	 esp, 4
  00144	50		 push	 eax
  00145	8b 55 ac	 mov	 edx, DWORD PTR __Al$[ebp]
  00148	52		 push	 edx
  00149	e8 00 00 00 00	 call	 ??$construct@PADABQAD@?$_Default_allocator_traits@V?$allocator@D@std@@@std@@SAXAAV?$allocator@D@1@QAPADABQAD@Z ; std::_Default_allocator_traits<std::allocator<char> >::construct<char *,char * const &>
  0014e	83 c4 0c	 add	 esp, 12			; 0000000cH
$LN4@Reallocate:
; Line 3865
  00151	8b 45 f4	 mov	 eax, DWORD PTR _this$[ebp]
$LN5@Reallocate:
; Line 3866
  00154	52		 push	 edx
  00155	8b cd		 mov	 ecx, ebp
  00157	50		 push	 eax
  00158	8d 15 00 00 00
	00		 lea	 edx, DWORD PTR $LN8@Reallocate
  0015e	e8 00 00 00 00	 call	 @_RTC_CheckStackVars@8
  00163	58		 pop	 eax
  00164	5a		 pop	 edx
  00165	5f		 pop	 edi
  00166	5e		 pop	 esi
  00167	5b		 pop	 ebx
  00168	8b 4d fc	 mov	 ecx, DWORD PTR __$ArrayPad$[ebp]
  0016b	33 cd		 xor	 ecx, ebp
  0016d	e8 00 00 00 00	 call	 @__security_check_cookie@4
  00172	81 c4 3c 01 00
	00		 add	 esp, 316		; 0000013cH
  00178	3b ec		 cmp	 ebp, esp
  0017a	e8 00 00 00 00	 call	 __RTC_CheckEsp
  0017f	8b e5		 mov	 esp, ebp
  00181	5d		 pop	 ebp
  00182	c2 0c 00	 ret	 12			; 0000000cH
  00185	0f 1f 00	 npad	 3
$LN8@Reallocate:
  00188	01 00 00 00	 DD	 1
  0018c	00 00 00 00	 DD	 $LN7@Reallocate
$LN7@Reallocate:
  00190	a0 ff ff ff	 DD	 -96			; ffffffa0H
  00194	04 00 00 00	 DD	 4
  00198	00 00 00 00	 DD	 $LN6@Reallocate
$LN6@Reallocate:
  0019c	5f		 DB	 95			; 0000005fH
  0019d	4e		 DB	 78			; 0000004eH
  0019e	65		 DB	 101			; 00000065H
  0019f	77		 DB	 119			; 00000077H
  001a0	5f		 DB	 95			; 0000005fH
  001a1	70		 DB	 112			; 00000070H
  001a2	74		 DB	 116			; 00000074H
  001a3	72		 DB	 114			; 00000072H
  001a4	00		 DB	 0
??$_Reallocate_grow_by@V<lambda_15711c68e099a15a58f4d77303cb286d>@@D@?$basic_string@DU?$char_traits@D@std@@V?$allocator@D@2@@std@@QAEAAV01@IV<lambda_15711c68e099a15a58f4d77303cb286d>@@D@Z ENDP ; std::basic_string<char,std::char_traits<char>,std::allocator<char> >::_Reallocate_grow_by<<lambda_15711c68e099a15a58f4d77303cb286d>,char>
_TEXT	ENDS
; Function compile flags: /Odtp /RTCsu /ZI
;	COMDAT ??R<lambda_15711c68e099a15a58f4d77303cb286d>@@QBEXQADQBDID@Z
_TEXT	SEGMENT
$T1 = -209						; size = 1
_this$ = -8						; size = 4
__New_ptr$ = 8						; size = 4
__Old_ptr$ = 12						; size = 4
__Old_size$ = 16					; size = 4
__Ch$ = 20						; size = 1
??R<lambda_15711c68e099a15a58f4d77303cb286d>@@QBEXQADQBDID@Z PROC ; <lambda_15711c68e099a15a58f4d77303cb286d>::operator(), COMDAT
; _this$ = ecx
; File c:\program files (x86)\microsoft visual studio\2017\community\vc\tools\msvc\14.13.26128\include\xstring
; Line 3182
  00000	55		 push	 ebp
  00001	8b ec		 mov	 ebp, esp
  00003	81 ec d8 00 00
	00		 sub	 esp, 216		; 000000d8H
  00009	53		 push	 ebx
  0000a	56		 push	 esi
  0000b	57		 push	 edi
  0000c	51		 push	 ecx
  0000d	8d bd 28 ff ff
	ff		 lea	 edi, DWORD PTR [ebp-216]
  00013	b9 36 00 00 00	 mov	 ecx, 54			; 00000036H
  00018	b8 cc cc cc cc	 mov	 eax, -858993460		; ccccccccH
  0001d	f3 ab		 rep stosd
  0001f	59		 pop	 ecx
  00020	89 4d f8	 mov	 DWORD PTR _this$[ebp], ecx
; Line 3183
  00023	8b 45 10	 mov	 eax, DWORD PTR __Old_size$[ebp]
  00026	50		 push	 eax
  00027	8b 4d 0c	 mov	 ecx, DWORD PTR __Old_ptr$[ebp]
  0002a	51		 push	 ecx
  0002b	8b 55 08	 mov	 edx, DWORD PTR __New_ptr$[ebp]
  0002e	52		 push	 edx
  0002f	e8 00 00 00 00	 call	 ?copy@?$char_traits@D@std@@SAPADQADQBDI@Z ; std::char_traits<char>::copy
  00034	83 c4 0c	 add	 esp, 12			; 0000000cH
; Line 3184
  00037	8d 45 14	 lea	 eax, DWORD PTR __Ch$[ebp]
  0003a	50		 push	 eax
  0003b	8b 4d 08	 mov	 ecx, DWORD PTR __New_ptr$[ebp]
  0003e	03 4d 10	 add	 ecx, DWORD PTR __Old_size$[ebp]
  00041	51		 push	 ecx
  00042	e8 00 00 00 00	 call	 ?assign@?$char_traits@D@std@@SAXAADABD@Z ; std::char_traits<char>::assign
  00047	83 c4 08	 add	 esp, 8
; Line 3185
  0004a	c6 85 2f ff ff
	ff 00		 mov	 BYTE PTR $T1[ebp], 0
  00051	8d 85 2f ff ff
	ff		 lea	 eax, DWORD PTR $T1[ebp]
  00057	50		 push	 eax
  00058	8b 4d 10	 mov	 ecx, DWORD PTR __Old_size$[ebp]
  0005b	8b 55 08	 mov	 edx, DWORD PTR __New_ptr$[ebp]
  0005e	8d 44 0a 01	 lea	 eax, DWORD PTR [edx+ecx+1]
  00062	50		 push	 eax
  00063	e8 00 00 00 00	 call	 ?assign@?$char_traits@D@std@@SAXAADABD@Z ; std::char_traits<char>::assign
  00068	83 c4 08	 add	 esp, 8
; Line 3186
  0006b	5f		 pop	 edi
  0006c	5e		 pop	 esi
  0006d	5b		 pop	 ebx
  0006e	81 c4 d8 00 00
	00		 add	 esp, 216		; 000000d8H
  00074	3b ec		 cmp	 ebp, esp
  00076	e8 00 00 00 00	 call	 __RTC_CheckEsp
  0007b	8b e5		 mov	 esp, ebp
  0007d	5d		 pop	 ebp
  0007e	c2 10 00	 ret	 16			; 00000010H
??R<lambda_15711c68e099a15a58f4d77303cb286d>@@QBEXQADQBDID@Z ENDP ; <lambda_15711c68e099a15a58f4d77303cb286d>::operator()
_TEXT	ENDS
; Function compile flags: /Odtp /RTCsu /ZI
;	COMDAT ??$?0D@?$allocator@U_Container_proxy@std@@@std@@QAE@ABV?$allocator@D@1@@Z
_TEXT	SEGMENT
_this$ = -8						; size = 4
___formal$ = 8						; size = 4
??$?0D@?$allocator@U_Container_proxy@std@@@std@@QAE@ABV?$allocator@D@1@@Z PROC ; std::allocator<std::_Container_proxy>::allocator<std::_Container_proxy><char>, COMDAT
; _this$ = ecx
; File c:\program files (x86)\microsoft visual studio\2017\community\vc\tools\msvc\14.13.26128\include\xmemory0
; Line 1024
  00000	55		 push	 ebp
  00001	8b ec		 mov	 ebp, esp
  00003	81 ec cc 00 00
	00		 sub	 esp, 204		; 000000ccH
  00009	53		 push	 ebx
  0000a	56		 push	 esi
  0000b	57		 push	 edi
  0000c	51		 push	 ecx
  0000d	8d bd 34 ff ff
	ff		 lea	 edi, DWORD PTR [ebp-204]
  00013	b9 33 00 00 00	 mov	 ecx, 51			; 00000033H
  00018	b8 cc cc cc cc	 mov	 eax, -858993460		; ccccccccH
  0001d	f3 ab		 rep stosd
  0001f	59		 pop	 ecx
  00020	89 4d f8	 mov	 DWORD PTR _this$[ebp], ecx
; Line 1025
  00023	8b 45 f8	 mov	 eax, DWORD PTR _this$[ebp]
  00026	5f		 pop	 edi
  00027	5e		 pop	 esi
  00028	5b		 pop	 ebx
  00029	8b e5		 mov	 esp, ebp
  0002b	5d		 pop	 ebp
  0002c	c2 04 00	 ret	 4
??$?0D@?$allocator@U_Container_proxy@std@@@std@@QAE@ABV?$allocator@D@1@@Z ENDP ; std::allocator<std::_Container_proxy>::allocator<std::_Container_proxy><char>
_TEXT	ENDS
; Function compile flags: /Odtp /RTCsu /ZI
;	COMDAT ??$construct@U_Container_proxy@std@@U12@@?$_Default_allocator_traits@V?$allocator@U_Container_proxy@std@@@std@@@std@@SAXAAV?$allocator@U_Container_proxy@std@@@1@QAU_Container_proxy@1@$$QAU31@@Z
_TEXT	SEGMENT
$T1 = -200						; size = 4
___formal$ = 8						; size = 4
__Ptr$ = 12						; size = 4
_<_Args_0>$ = 16					; size = 4
??$construct@U_Container_proxy@std@@U12@@?$_Default_allocator_traits@V?$allocator@U_Container_proxy@std@@@std@@@std@@SAXAAV?$allocator@U_Container_proxy@std@@@1@QAU_Container_proxy@1@$$QAU31@@Z PROC ; std::_Default_allocator_traits<std::allocator<std::_Container_proxy> >::construct<std::_Container_proxy,std::_Container_proxy>, COMDAT
; File c:\program files (x86)\microsoft visual studio\2017\community\vc\tools\msvc\14.13.26128\include\xmemory0
; Line 917
  00000	55		 push	 ebp
  00001	8b ec		 mov	 ebp, esp
  00003	81 ec cc 00 00
	00		 sub	 esp, 204		; 000000ccH
  00009	53		 push	 ebx
  0000a	56		 push	 esi
  0000b	57		 push	 edi
  0000c	8d bd 34 ff ff
	ff		 lea	 edi, DWORD PTR [ebp-204]
  00012	b9 33 00 00 00	 mov	 ecx, 51			; 00000033H
  00017	b8 cc cc cc cc	 mov	 eax, -858993460		; ccccccccH
  0001c	f3 ab		 rep stosd
  0001e	8b 45 0c	 mov	 eax, DWORD PTR __Ptr$[ebp]
  00021	50		 push	 eax
  00022	6a 08		 push	 8
  00024	e8 00 00 00 00	 call	 ??2@YAPAXIPAX@Z		; operator new
  00029	83 c4 08	 add	 esp, 8
  0002c	89 85 38 ff ff
	ff		 mov	 DWORD PTR $T1[ebp], eax
  00032	8b 4d 10	 mov	 ecx, DWORD PTR _<_Args_0>$[ebp]
  00035	51		 push	 ecx
  00036	e8 00 00 00 00	 call	 ??$forward@U_Container_proxy@std@@@std@@YA$$QAU_Container_proxy@0@AAU10@@Z ; std::forward<std::_Container_proxy>
  0003b	83 c4 04	 add	 esp, 4
  0003e	8b 10		 mov	 edx, DWORD PTR [eax]
  00040	8b 40 04	 mov	 eax, DWORD PTR [eax+4]
  00043	8b 8d 38 ff ff
	ff		 mov	 ecx, DWORD PTR $T1[ebp]
  00049	89 11		 mov	 DWORD PTR [ecx], edx
  0004b	89 41 04	 mov	 DWORD PTR [ecx+4], eax
; Line 920
  0004e	5f		 pop	 edi
  0004f	5e		 pop	 esi
  00050	5b		 pop	 ebx
  00051	81 c4 cc 00 00
	00		 add	 esp, 204		; 000000ccH
  00057	3b ec		 cmp	 ebp, esp
  00059	e8 00 00 00 00	 call	 __RTC_CheckEsp
  0005e	8b e5		 mov	 esp, ebp
  00060	5d		 pop	 ebp
  00061	c3		 ret	 0
??$construct@U_Container_proxy@std@@U12@@?$_Default_allocator_traits@V?$allocator@U_Container_proxy@std@@@std@@@std@@SAXAAV?$allocator@U_Container_proxy@std@@@1@QAU_Container_proxy@1@$$QAU31@@Z ENDP ; std::_Default_allocator_traits<std::allocator<std::_Container_proxy> >::construct<std::_Container_proxy,std::_Container_proxy>
_TEXT	ENDS
; Function compile flags: /Odtp /RTCsu /ZI
;	COMDAT ??$_Unfancy@U_Container_proxy@std@@@std@@YAPAU_Container_proxy@0@PAU10@@Z
_TEXT	SEGMENT
__Ptr$ = 8						; size = 4
??$_Unfancy@U_Container_proxy@std@@@std@@YAPAU_Container_proxy@0@PAU10@@Z PROC ; std::_Unfancy<std::_Container_proxy>, COMDAT
; File c:\program files (x86)\microsoft visual studio\2017\community\vc\tools\msvc\14.13.26128\include\xstddef
; Line 264
  00000	55		 push	 ebp
  00001	8b ec		 mov	 ebp, esp
  00003	81 ec c0 00 00
	00		 sub	 esp, 192		; 000000c0H
  00009	53		 push	 ebx
  0000a	56		 push	 esi
  0000b	57		 push	 edi
  0000c	8d bd 40 ff ff
	ff		 lea	 edi, DWORD PTR [ebp-192]
  00012	b9 30 00 00 00	 mov	 ecx, 48			; 00000030H
  00017	b8 cc cc cc cc	 mov	 eax, -858993460		; ccccccccH
  0001c	f3 ab		 rep stosd
; Line 265
  0001e	8b 45 08	 mov	 eax, DWORD PTR __Ptr$[ebp]
; Line 266
  00021	5f		 pop	 edi
  00022	5e		 pop	 esi
  00023	5b		 pop	 ebx
  00024	8b e5		 mov	 esp, ebp
  00026	5d		 pop	 ebp
  00027	c3		 ret	 0
??$_Unfancy@U_Container_proxy@std@@@std@@YAPAU_Container_proxy@0@PAU10@@Z ENDP ; std::_Unfancy<std::_Container_proxy>
_TEXT	ENDS
; Function compile flags: /Odtp /RTCsu /ZI
;	COMDAT ??$_Deallocate_plain@V?$allocator@U_Container_proxy@std@@@std@@$0A@@std@@YAXAAV?$allocator@U_Container_proxy@std@@@0@QAU_Container_proxy@0@@Z
_TEXT	SEGMENT
__Al$ = 8						; size = 4
__Ptr$ = 12						; size = 4
??$_Deallocate_plain@V?$allocator@U_Container_proxy@std@@@std@@$0A@@std@@YAXAAV?$allocator@U_Container_proxy@std@@@0@QAU_Container_proxy@0@@Z PROC ; std::_Deallocate_plain<std::allocator<std::_Container_proxy>,0>, COMDAT
; File c:\program files (x86)\microsoft visual studio\2017\community\vc\tools\msvc\14.13.26128\include\xmemory0
; Line 1297
  00000	55		 push	 ebp
  00001	8b ec		 mov	 ebp, esp
  00003	81 ec c0 00 00
	00		 sub	 esp, 192		; 000000c0H
  00009	53		 push	 ebx
  0000a	56		 push	 esi
  0000b	57		 push	 edi
  0000c	8d bd 40 ff ff
	ff		 lea	 edi, DWORD PTR [ebp-192]
  00012	b9 30 00 00 00	 mov	 ecx, 48			; 00000030H
  00017	b8 cc cc cc cc	 mov	 eax, -858993460		; ccccccccH
  0001c	f3 ab		 rep stosd
; Line 1298
  0001e	6a 01		 push	 1
  00020	8b 45 0c	 mov	 eax, DWORD PTR __Ptr$[ebp]
  00023	50		 push	 eax
  00024	8b 4d 08	 mov	 ecx, DWORD PTR __Al$[ebp]
  00027	51		 push	 ecx
  00028	e8 00 00 00 00	 call	 ?deallocate@?$_Default_allocator_traits@V?$allocator@U_Container_proxy@std@@@std@@@std@@SAXAAV?$allocator@U_Container_proxy@std@@@2@QAU_Container_proxy@2@I@Z ; std::_Default_allocator_traits<std::allocator<std::_Container_proxy> >::deallocate
  0002d	83 c4 0c	 add	 esp, 12			; 0000000cH
; Line 1299
  00030	5f		 pop	 edi
  00031	5e		 pop	 esi
  00032	5b		 pop	 ebx
  00033	81 c4 c0 00 00
	00		 add	 esp, 192		; 000000c0H
  00039	3b ec		 cmp	 ebp, esp
  0003b	e8 00 00 00 00	 call	 __RTC_CheckEsp
  00040	8b e5		 mov	 esp, ebp
  00042	5d		 pop	 ebp
  00043	c3		 ret	 0
??$_Deallocate_plain@V?$allocator@U_Container_proxy@std@@@std@@$0A@@std@@YAXAAV?$allocator@U_Container_proxy@std@@@0@QAU_Container_proxy@0@@Z ENDP ; std::_Deallocate_plain<std::allocator<std::_Container_proxy>,0>
_TEXT	ENDS
; Function compile flags: /Odtp /RTCsu /ZI
;	COMDAT ??$destroy@U_Container_proxy@std@@@?$_Default_allocator_traits@V?$allocator@U_Container_proxy@std@@@std@@@std@@SAXAAV?$allocator@U_Container_proxy@std@@@1@QAU_Container_proxy@1@@Z
_TEXT	SEGMENT
___formal$ = 8						; size = 4
__Ptr$ = 12						; size = 4
??$destroy@U_Container_proxy@std@@@?$_Default_allocator_traits@V?$allocator@U_Container_proxy@std@@@std@@@std@@SAXAAV?$allocator@U_Container_proxy@std@@@1@QAU_Container_proxy@1@@Z PROC ; std::_Default_allocator_traits<std::allocator<std::_Container_proxy> >::destroy<std::_Container_proxy>, COMDAT
; File c:\program files (x86)\microsoft visual studio\2017\community\vc\tools\msvc\14.13.26128\include\xmemory0
; Line 924
  00000	55		 push	 ebp
  00001	8b ec		 mov	 ebp, esp
  00003	81 ec c0 00 00
	00		 sub	 esp, 192		; 000000c0H
  00009	53		 push	 ebx
  0000a	56		 push	 esi
  0000b	57		 push	 edi
  0000c	8d bd 40 ff ff
	ff		 lea	 edi, DWORD PTR [ebp-192]
  00012	b9 30 00 00 00	 mov	 ecx, 48			; 00000030H
  00017	b8 cc cc cc cc	 mov	 eax, -858993460		; ccccccccH
  0001c	f3 ab		 rep stosd
; Line 926
  0001e	5f		 pop	 edi
  0001f	5e		 pop	 esi
  00020	5b		 pop	 ebx
  00021	8b e5		 mov	 esp, ebp
  00023	5d		 pop	 ebp
  00024	c3		 ret	 0
??$destroy@U_Container_proxy@std@@@?$_Default_allocator_traits@V?$allocator@U_Container_proxy@std@@@std@@@std@@SAXAAV?$allocator@U_Container_proxy@std@@@1@QAU_Container_proxy@1@@Z ENDP ; std::_Default_allocator_traits<std::allocator<std::_Container_proxy> >::destroy<std::_Container_proxy>
_TEXT	ENDS
; Function compile flags: /Odtp /RTCsu /ZI
;	COMDAT ?deallocate@?$_Default_allocator_traits@V?$allocator@U_Container_proxy@std@@@std@@@std@@SAXAAV?$allocator@U_Container_proxy@std@@@2@QAU_Container_proxy@2@I@Z
_TEXT	SEGMENT
___formal$ = 8						; size = 4
__Ptr$ = 12						; size = 4
__Count$ = 16						; size = 4
?deallocate@?$_Default_allocator_traits@V?$allocator@U_Container_proxy@std@@@std@@@std@@SAXAAV?$allocator@U_Container_proxy@std@@@2@QAU_Container_proxy@2@I@Z PROC ; std::_Default_allocator_traits<std::allocator<std::_Container_proxy> >::deallocate, COMDAT
; File c:\program files (x86)\microsoft visual studio\2017\community\vc\tools\msvc\14.13.26128\include\xmemory0
; Line 909
  00000	55		 push	 ebp
  00001	8b ec		 mov	 ebp, esp
  00003	81 ec c0 00 00
	00		 sub	 esp, 192		; 000000c0H
  00009	53		 push	 ebx
  0000a	56		 push	 esi
  0000b	57		 push	 edi
  0000c	8d bd 40 ff ff
	ff		 lea	 edi, DWORD PTR [ebp-192]
  00012	b9 30 00 00 00	 mov	 ecx, 48			; 00000030H
  00017	b8 cc cc cc cc	 mov	 eax, -858993460		; ccccccccH
  0001c	f3 ab		 rep stosd
; Line 911
  0001e	8b 45 10	 mov	 eax, DWORD PTR __Count$[ebp]
  00021	c1 e0 03	 shl	 eax, 3
  00024	50		 push	 eax
  00025	8b 4d 0c	 mov	 ecx, DWORD PTR __Ptr$[ebp]
  00028	51		 push	 ecx
  00029	e8 00 00 00 00	 call	 ??$_Deallocate@$07$0A@@std@@YAXPAXI@Z ; std::_Deallocate<8,0>
  0002e	83 c4 08	 add	 esp, 8
; Line 912
  00031	5f		 pop	 edi
  00032	5e		 pop	 esi
  00033	5b		 pop	 ebx
  00034	81 c4 c0 00 00
	00		 add	 esp, 192		; 000000c0H
  0003a	3b ec		 cmp	 ebp, esp
  0003c	e8 00 00 00 00	 call	 __RTC_CheckEsp
  00041	8b e5		 mov	 esp, ebp
  00043	5d		 pop	 ebp
  00044	c3		 ret	 0
?deallocate@?$_Default_allocator_traits@V?$allocator@U_Container_proxy@std@@@std@@@std@@SAXAAV?$allocator@U_Container_proxy@std@@@2@QAU_Container_proxy@2@I@Z ENDP ; std::_Default_allocator_traits<std::allocator<std::_Container_proxy> >::deallocate
_TEXT	ENDS
; Function compile flags: /Odtp /RTCsu /ZI
;	COMDAT ?allocate@?$allocator@U_Container_proxy@std@@@std@@QAEPAU_Container_proxy@2@I@Z
_TEXT	SEGMENT
_this$ = -8						; size = 4
__Count$ = 8						; size = 4
?allocate@?$allocator@U_Container_proxy@std@@@std@@QAEPAU_Container_proxy@2@I@Z PROC ; std::allocator<std::_Container_proxy>::allocate, COMDAT
; _this$ = ecx
; File c:\program files (x86)\microsoft visual studio\2017\community\vc\tools\msvc\14.13.26128\include\xmemory0
; Line 1034
  00000	55		 push	 ebp
  00001	8b ec		 mov	 ebp, esp
  00003	81 ec cc 00 00
	00		 sub	 esp, 204		; 000000ccH
  00009	53		 push	 ebx
  0000a	56		 push	 esi
  0000b	57		 push	 edi
  0000c	51		 push	 ecx
  0000d	8d bd 34 ff ff
	ff		 lea	 edi, DWORD PTR [ebp-204]
  00013	b9 33 00 00 00	 mov	 ecx, 51			; 00000033H
  00018	b8 cc cc cc cc	 mov	 eax, -858993460		; ccccccccH
  0001d	f3 ab		 rep stosd
  0001f	59		 pop	 ecx
  00020	89 4d f8	 mov	 DWORD PTR _this$[ebp], ecx
; Line 1035
  00023	8b 45 08	 mov	 eax, DWORD PTR __Count$[ebp]
  00026	50		 push	 eax
  00027	e8 00 00 00 00	 call	 ??$_Get_size_of_n@$07@std@@YAII@Z ; std::_Get_size_of_n<8>
  0002c	83 c4 04	 add	 esp, 4
  0002f	50		 push	 eax
  00030	e8 00 00 00 00	 call	 ??$_Allocate@$07U_Default_allocate_traits@std@@$0A@@std@@YAPAXI@Z ; std::_Allocate<8,std::_Default_allocate_traits,0>
  00035	83 c4 04	 add	 esp, 4
; Line 1036
  00038	5f		 pop	 edi
  00039	5e		 pop	 esi
  0003a	5b		 pop	 ebx
  0003b	81 c4 cc 00 00
	00		 add	 esp, 204		; 000000ccH
  00041	3b ec		 cmp	 ebp, esp
  00043	e8 00 00 00 00	 call	 __RTC_CheckEsp
  00048	8b e5		 mov	 esp, ebp
  0004a	5d		 pop	 ebp
  0004b	c2 04 00	 ret	 4
?allocate@?$allocator@U_Container_proxy@std@@@std@@QAEPAU_Container_proxy@2@I@Z ENDP ; std::allocator<std::_Container_proxy>::allocate
_TEXT	ENDS
; Function compile flags: /Odtp /RTCsu /ZI
;	COMDAT ??$_Deallocate@$07$0A@@std@@YAXPAXI@Z
_TEXT	SEGMENT
__Ptr$ = 8						; size = 4
__Bytes$ = 12						; size = 4
??$_Deallocate@$07$0A@@std@@YAXPAXI@Z PROC		; std::_Deallocate<8,0>, COMDAT
; File c:\program files (x86)\microsoft visual studio\2017\community\vc\tools\msvc\14.13.26128\include\xmemory0
; Line 209
  00000	55		 push	 ebp
  00001	8b ec		 mov	 ebp, esp
  00003	81 ec c0 00 00
	00		 sub	 esp, 192		; 000000c0H
  00009	53		 push	 ebx
  0000a	56		 push	 esi
  0000b	57		 push	 edi
  0000c	8d bd 40 ff ff
	ff		 lea	 edi, DWORD PTR [ebp-192]
  00012	b9 30 00 00 00	 mov	 ecx, 48			; 00000030H
  00017	b8 cc cc cc cc	 mov	 eax, -858993460		; ccccccccH
  0001c	f3 ab		 rep stosd
; Line 211
  0001e	81 7d 0c 00 10
	00 00		 cmp	 DWORD PTR __Bytes$[ebp], 4096 ; 00001000H
  00025	72 10		 jb	 SHORT $LN2@Deallocate
; Line 213
  00027	8d 45 0c	 lea	 eax, DWORD PTR __Bytes$[ebp]
  0002a	50		 push	 eax
  0002b	8d 4d 08	 lea	 ecx, DWORD PTR __Ptr$[ebp]
  0002e	51		 push	 ecx
  0002f	e8 00 00 00 00	 call	 ?_Adjust_manually_vector_aligned@std@@YAXAAPAXAAI@Z ; std::_Adjust_manually_vector_aligned
  00034	83 c4 08	 add	 esp, 8
$LN2@Deallocate:
; Line 217
  00037	8b 45 0c	 mov	 eax, DWORD PTR __Bytes$[ebp]
  0003a	50		 push	 eax
  0003b	8b 4d 08	 mov	 ecx, DWORD PTR __Ptr$[ebp]
  0003e	51		 push	 ecx
  0003f	e8 00 00 00 00	 call	 ??3@YAXPAXI@Z		; operator delete
  00044	83 c4 08	 add	 esp, 8
; Line 218
  00047	5f		 pop	 edi
  00048	5e		 pop	 esi
  00049	5b		 pop	 ebx
  0004a	81 c4 c0 00 00
	00		 add	 esp, 192		; 000000c0H
  00050	3b ec		 cmp	 ebp, esp
  00052	e8 00 00 00 00	 call	 __RTC_CheckEsp
  00057	8b e5		 mov	 esp, ebp
  00059	5d		 pop	 ebp
  0005a	c3		 ret	 0
??$_Deallocate@$07$0A@@std@@YAXPAXI@Z ENDP		; std::_Deallocate<8,0>
_TEXT	ENDS
; Function compile flags: /Odtp /RTCsu /ZI
;	COMDAT ??$_Allocate@$07U_Default_allocate_traits@std@@$0A@@std@@YAPAXI@Z
_TEXT	SEGMENT
__Bytes$ = 8						; size = 4
??$_Allocate@$07U_Default_allocate_traits@std@@$0A@@std@@YAPAXI@Z PROC ; std::_Allocate<8,std::_Default_allocate_traits,0>, COMDAT
; File c:\program files (x86)\microsoft visual studio\2017\community\vc\tools\msvc\14.13.26128\include\xmemory0
; Line 190
  00000	55		 push	 ebp
  00001	8b ec		 mov	 ebp, esp
  00003	81 ec c0 00 00
	00		 sub	 esp, 192		; 000000c0H
  00009	53		 push	 ebx
  0000a	56		 push	 esi
  0000b	57		 push	 edi
  0000c	8d bd 40 ff ff
	ff		 lea	 edi, DWORD PTR [ebp-192]
  00012	b9 30 00 00 00	 mov	 ecx, 48			; 00000030H
  00017	b8 cc cc cc cc	 mov	 eax, -858993460		; ccccccccH
  0001c	f3 ab		 rep stosd
; Line 192
  0001e	81 7d 08 00 10
	00 00		 cmp	 DWORD PTR __Bytes$[ebp], 4096 ; 00001000H
  00025	72 0e		 jb	 SHORT $LN2@Allocate
; Line 194
  00027	8b 45 08	 mov	 eax, DWORD PTR __Bytes$[ebp]
  0002a	50		 push	 eax
  0002b	e8 00 00 00 00	 call	 ??$_Allocate_manually_vector_aligned@U_Default_allocate_traits@std@@@std@@YAPAXI@Z ; std::_Allocate_manually_vector_aligned<std::_Default_allocate_traits>
  00030	83 c4 04	 add	 esp, 4
  00033	eb 16		 jmp	 SHORT $LN1@Allocate
$LN2@Allocate:
; Line 198
  00035	83 7d 08 00	 cmp	 DWORD PTR __Bytes$[ebp], 0
  00039	74 0e		 je	 SHORT $LN3@Allocate
; Line 200
  0003b	8b 45 08	 mov	 eax, DWORD PTR __Bytes$[ebp]
  0003e	50		 push	 eax
  0003f	e8 00 00 00 00	 call	 ?_Allocate@_Default_allocate_traits@std@@SAPAXI@Z ; std::_Default_allocate_traits::_Allocate
  00044	83 c4 04	 add	 esp, 4
  00047	eb 02		 jmp	 SHORT $LN1@Allocate
$LN3@Allocate:
; Line 203
  00049	33 c0		 xor	 eax, eax
$LN1@Allocate:
; Line 204
  0004b	5f		 pop	 edi
  0004c	5e		 pop	 esi
  0004d	5b		 pop	 ebx
  0004e	81 c4 c0 00 00
	00		 add	 esp, 192		; 000000c0H
  00054	3b ec		 cmp	 ebp, esp
  00056	e8 00 00 00 00	 call	 __RTC_CheckEsp
  0005b	8b e5		 mov	 esp, ebp
  0005d	5d		 pop	 ebp
  0005e	c3		 ret	 0
??$_Allocate@$07U_Default_allocate_traits@std@@$0A@@std@@YAPAXI@Z ENDP ; std::_Allocate<8,std::_Default_allocate_traits,0>
_TEXT	ENDS
; Function compile flags: /Odtp /RTCsu /ZI
;	COMDAT ??$addressof@V?$_String_val@U?$_Simple_types@D@std@@@std@@@std@@YAPAV?$_String_val@U?$_Simple_types@D@std@@@0@AAV10@@Z
_TEXT	SEGMENT
__Val$ = 8						; size = 4
??$addressof@V?$_String_val@U?$_Simple_types@D@std@@@std@@@std@@YAPAV?$_String_val@U?$_Simple_types@D@std@@@0@AAV10@@Z PROC ; std::addressof<std::_String_val<std::_Simple_types<char> > >, COMDAT
; File c:\program files (x86)\microsoft visual studio\2017\community\vc\tools\msvc\14.13.26128\include\xstddef
; Line 248
  00000	55		 push	 ebp
  00001	8b ec		 mov	 ebp, esp
  00003	81 ec c0 00 00
	00		 sub	 esp, 192		; 000000c0H
  00009	53		 push	 ebx
  0000a	56		 push	 esi
  0000b	57		 push	 edi
  0000c	8d bd 40 ff ff
	ff		 lea	 edi, DWORD PTR [ebp-192]
  00012	b9 30 00 00 00	 mov	 ecx, 48			; 00000030H
  00017	b8 cc cc cc cc	 mov	 eax, -858993460		; ccccccccH
  0001c	f3 ab		 rep stosd
; Line 249
  0001e	8b 45 08	 mov	 eax, DWORD PTR __Val$[ebp]
; Line 250
  00021	5f		 pop	 edi
  00022	5e		 pop	 esi
  00023	5b		 pop	 ebx
  00024	8b e5		 mov	 esp, ebp
  00026	5d		 pop	 ebp
  00027	c3		 ret	 0
??$addressof@V?$_String_val@U?$_Simple_types@D@std@@@std@@@std@@YAPAV?$_String_val@U?$_Simple_types@D@std@@@0@AAV10@@Z ENDP ; std::addressof<std::_String_val<std::_Simple_types<char> > >
_TEXT	ENDS
; Function compile flags: /Odtp /RTCsu /ZI
;	COMDAT ??$construct@PADABQAD@?$_Default_allocator_traits@V?$allocator@D@std@@@std@@SAXAAV?$allocator@D@1@QAPADABQAD@Z
_TEXT	SEGMENT
$T1 = -200						; size = 4
___formal$ = 8						; size = 4
__Ptr$ = 12						; size = 4
_<_Args_0>$ = 16					; size = 4
??$construct@PADABQAD@?$_Default_allocator_traits@V?$allocator@D@std@@@std@@SAXAAV?$allocator@D@1@QAPADABQAD@Z PROC ; std::_Default_allocator_traits<std::allocator<char> >::construct<char *,char * const &>, COMDAT
; File c:\program files (x86)\microsoft visual studio\2017\community\vc\tools\msvc\14.13.26128\include\xmemory0
; Line 917
  00000	55		 push	 ebp
  00001	8b ec		 mov	 ebp, esp
  00003	81 ec cc 00 00
	00		 sub	 esp, 204		; 000000ccH
  00009	53		 push	 ebx
  0000a	56		 push	 esi
  0000b	57		 push	 edi
  0000c	8d bd 34 ff ff
	ff		 lea	 edi, DWORD PTR [ebp-204]
  00012	b9 33 00 00 00	 mov	 ecx, 51			; 00000033H
  00017	b8 cc cc cc cc	 mov	 eax, -858993460		; ccccccccH
  0001c	f3 ab		 rep stosd
  0001e	8b 45 0c	 mov	 eax, DWORD PTR __Ptr$[ebp]
  00021	50		 push	 eax
  00022	6a 04		 push	 4
  00024	e8 00 00 00 00	 call	 ??2@YAPAXIPAX@Z		; operator new
  00029	83 c4 08	 add	 esp, 8
  0002c	89 85 38 ff ff
	ff		 mov	 DWORD PTR $T1[ebp], eax
  00032	8b 4d 10	 mov	 ecx, DWORD PTR _<_Args_0>$[ebp]
  00035	51		 push	 ecx
  00036	e8 00 00 00 00	 call	 ??$forward@ABQAD@std@@YAABQADABQAD@Z ; std::forward<char * const &>
  0003b	83 c4 04	 add	 esp, 4
  0003e	8b 95 38 ff ff
	ff		 mov	 edx, DWORD PTR $T1[ebp]
  00044	8b 00		 mov	 eax, DWORD PTR [eax]
  00046	89 02		 mov	 DWORD PTR [edx], eax
; Line 920
  00048	5f		 pop	 edi
  00049	5e		 pop	 esi
  0004a	5b		 pop	 ebx
  0004b	81 c4 cc 00 00
	00		 add	 esp, 204		; 000000ccH
  00051	3b ec		 cmp	 ebp, esp
  00053	e8 00 00 00 00	 call	 __RTC_CheckEsp
  00058	8b e5		 mov	 esp, ebp
  0005a	5d		 pop	 ebp
  0005b	c3		 ret	 0
??$construct@PADABQAD@?$_Default_allocator_traits@V?$allocator@D@std@@@std@@SAXAAV?$allocator@D@1@QAPADABQAD@Z ENDP ; std::_Default_allocator_traits<std::allocator<char> >::construct<char *,char * const &>
_TEXT	ENDS
; Function compile flags: /Odtp /RTCsu /ZI
;	COMDAT ??$_Max_value@I@std@@YAABIABI0@Z
_TEXT	SEGMENT
tv65 = -208						; size = 4
$T1 = -200						; size = 4
__Left$ = 8						; size = 4
__Right$ = 12						; size = 4
??$_Max_value@I@std@@YAABIABI0@Z PROC			; std::_Max_value<unsigned int>, COMDAT
; File c:\program files (x86)\microsoft visual studio\2017\community\vc\tools\msvc\14.13.26128\include\utility
; Line 31
  00000	55		 push	 ebp
  00001	8b ec		 mov	 ebp, esp
  00003	81 ec d0 00 00
	00		 sub	 esp, 208		; 000000d0H
  00009	53		 push	 ebx
  0000a	56		 push	 esi
  0000b	57		 push	 edi
  0000c	8d bd 30 ff ff
	ff		 lea	 edi, DWORD PTR [ebp-208]
  00012	b9 34 00 00 00	 mov	 ecx, 52			; 00000034H
  00017	b8 cc cc cc cc	 mov	 eax, -858993460		; ccccccccH
  0001c	f3 ab		 rep stosd
; Line 32
  0001e	8b 45 08	 mov	 eax, DWORD PTR __Left$[ebp]
  00021	8b 4d 0c	 mov	 ecx, DWORD PTR __Right$[ebp]
  00024	8b 10		 mov	 edx, DWORD PTR [eax]
  00026	3b 11		 cmp	 edx, DWORD PTR [ecx]
  00028	73 0b		 jae	 SHORT $LN3@Max_value
  0002a	8b 45 0c	 mov	 eax, DWORD PTR __Right$[ebp]
  0002d	89 85 30 ff ff
	ff		 mov	 DWORD PTR tv65[ebp], eax
  00033	eb 09		 jmp	 SHORT $LN4@Max_value
$LN3@Max_value:
  00035	8b 4d 08	 mov	 ecx, DWORD PTR __Left$[ebp]
  00038	89 8d 30 ff ff
	ff		 mov	 DWORD PTR tv65[ebp], ecx
$LN4@Max_value:
  0003e	8b 95 30 ff ff
	ff		 mov	 edx, DWORD PTR tv65[ebp]
  00044	89 95 38 ff ff
	ff		 mov	 DWORD PTR $T1[ebp], edx
  0004a	8b 85 38 ff ff
	ff		 mov	 eax, DWORD PTR $T1[ebp]
; Line 33
  00050	5f		 pop	 edi
  00051	5e		 pop	 esi
  00052	5b		 pop	 ebx
  00053	8b e5		 mov	 esp, ebp
  00055	5d		 pop	 ebp
  00056	c3		 ret	 0
??$_Max_value@I@std@@YAABIABI0@Z ENDP			; std::_Max_value<unsigned int>
_TEXT	ENDS
; Function compile flags: /Odtp /RTCsu /ZI
;	COMDAT ??$destroy@PAD@?$_Default_allocator_traits@V?$allocator@D@std@@@std@@SAXAAV?$allocator@D@1@QAPAD@Z
_TEXT	SEGMENT
___formal$ = 8						; size = 4
__Ptr$ = 12						; size = 4
??$destroy@PAD@?$_Default_allocator_traits@V?$allocator@D@std@@@std@@SAXAAV?$allocator@D@1@QAPAD@Z PROC ; std::_Default_allocator_traits<std::allocator<char> >::destroy<char *>, COMDAT
; File c:\program files (x86)\microsoft visual studio\2017\community\vc\tools\msvc\14.13.26128\include\xmemory0
; Line 924
  00000	55		 push	 ebp
  00001	8b ec		 mov	 ebp, esp
  00003	81 ec c0 00 00
	00		 sub	 esp, 192		; 000000c0H
  00009	53		 push	 ebx
  0000a	56		 push	 esi
  0000b	57		 push	 edi
  0000c	8d bd 40 ff ff
	ff		 lea	 edi, DWORD PTR [ebp-192]
  00012	b9 30 00 00 00	 mov	 ecx, 48			; 00000030H
  00017	b8 cc cc cc cc	 mov	 eax, -858993460		; ccccccccH
  0001c	f3 ab		 rep stosd
; Line 926
  0001e	5f		 pop	 edi
  0001f	5e		 pop	 esi
  00020	5b		 pop	 ebx
  00021	8b e5		 mov	 esp, ebp
  00023	5d		 pop	 ebp
  00024	c3		 ret	 0
??$destroy@PAD@?$_Default_allocator_traits@V?$allocator@D@std@@@std@@SAXAAV?$allocator@D@1@QAPAD@Z ENDP ; std::_Default_allocator_traits<std::allocator<char> >::destroy<char *>
_TEXT	ENDS
; Function compile flags: /Odtp /RTCsu /ZI
;	COMDAT ??$addressof@PAD@std@@YAPAPADAAPAD@Z
_TEXT	SEGMENT
__Val$ = 8						; size = 4
??$addressof@PAD@std@@YAPAPADAAPAD@Z PROC		; std::addressof<char *>, COMDAT
; File c:\program files (x86)\microsoft visual studio\2017\community\vc\tools\msvc\14.13.26128\include\xstddef
; Line 248
  00000	55		 push	 ebp
  00001	8b ec		 mov	 ebp, esp
  00003	81 ec c0 00 00
	00		 sub	 esp, 192		; 000000c0H
  00009	53		 push	 ebx
  0000a	56		 push	 esi
  0000b	57		 push	 edi
  0000c	8d bd 40 ff ff
	ff		 lea	 edi, DWORD PTR [ebp-192]
  00012	b9 30 00 00 00	 mov	 ecx, 48			; 00000030H
  00017	b8 cc cc cc cc	 mov	 eax, -858993460		; ccccccccH
  0001c	f3 ab		 rep stosd
; Line 249
  0001e	8b 45 08	 mov	 eax, DWORD PTR __Val$[ebp]
; Line 250
  00021	5f		 pop	 edi
  00022	5e		 pop	 esi
  00023	5b		 pop	 ebx
  00024	8b e5		 mov	 esp, ebp
  00026	5d		 pop	 ebp
  00027	c3		 ret	 0
??$addressof@PAD@std@@YAPAPADAAPAD@Z ENDP		; std::addressof<char *>
_TEXT	ENDS
; Function compile flags: /Odtp /RTCsu /ZI
;	COMDAT ??$?0$$V@?$_Compressed_pair@V?$allocator@D@std@@V?$_String_val@U?$_Simple_types@D@std@@@2@$00@std@@QAE@U_Zero_then_variadic_args_t@1@@Z
_TEXT	SEGMENT
_this$ = -8						; size = 4
___formal$ = 8						; size = 1
??$?0$$V@?$_Compressed_pair@V?$allocator@D@std@@V?$_String_val@U?$_Simple_types@D@std@@@2@$00@std@@QAE@U_Zero_then_variadic_args_t@1@@Z PROC ; std::_Compressed_pair<std::allocator<char>,std::_String_val<std::_Simple_types<char> >,1>::_Compressed_pair<std::allocator<char>,std::_String_val<std::_Simple_types<char> >,1><>, COMDAT
; _this$ = ecx
; File c:\program files (x86)\microsoft visual studio\2017\community\vc\tools\msvc\14.13.26128\include\xutility
; Line 311
  00000	55		 push	 ebp
  00001	8b ec		 mov	 ebp, esp
  00003	81 ec cc 00 00
	00		 sub	 esp, 204		; 000000ccH
  00009	53		 push	 ebx
  0000a	56		 push	 esi
  0000b	57		 push	 edi
  0000c	51		 push	 ecx
  0000d	8d bd 34 ff ff
	ff		 lea	 edi, DWORD PTR [ebp-204]
  00013	b9 33 00 00 00	 mov	 ecx, 51			; 00000033H
  00018	b8 cc cc cc cc	 mov	 eax, -858993460		; ccccccccH
  0001d	f3 ab		 rep stosd
  0001f	59		 pop	 ecx
  00020	89 4d f8	 mov	 DWORD PTR _this$[ebp], ecx
  00023	8b 4d f8	 mov	 ecx, DWORD PTR _this$[ebp]
  00026	e8 00 00 00 00	 call	 ??0?$allocator@D@std@@QAE@XZ ; std::allocator<char>::allocator<char>
  0002b	8b 4d f8	 mov	 ecx, DWORD PTR _this$[ebp]
  0002e	e8 00 00 00 00	 call	 ??0?$_String_val@U?$_Simple_types@D@std@@@std@@QAE@XZ ; std::_String_val<std::_Simple_types<char> >::_String_val<std::_Simple_types<char> >
; Line 313
  00033	8b 45 f8	 mov	 eax, DWORD PTR _this$[ebp]
  00036	5f		 pop	 edi
  00037	5e		 pop	 esi
  00038	5b		 pop	 ebx
  00039	81 c4 cc 00 00
	00		 add	 esp, 204		; 000000ccH
  0003f	3b ec		 cmp	 ebp, esp
  00041	e8 00 00 00 00	 call	 __RTC_CheckEsp
  00046	8b e5		 mov	 esp, ebp
  00048	5d		 pop	 ebp
  00049	c2 04 00	 ret	 4
??$?0$$V@?$_Compressed_pair@V?$allocator@D@std@@V?$_String_val@U?$_Simple_types@D@std@@@2@$00@std@@QAE@U_Zero_then_variadic_args_t@1@@Z ENDP ; std::_Compressed_pair<std::allocator<char>,std::_String_val<std::_Simple_types<char> >,1>::_Compressed_pair<std::allocator<char>,std::_String_val<std::_Simple_types<char> >,1><>
_TEXT	ENDS
; Function compile flags: /Odtp /RTCsu /ZI
;	COMDAT ??$move@AAV?$basic_string@DU?$char_traits@D@std@@V?$allocator@D@2@@std@@@std@@YA$$QAV?$basic_string@DU?$char_traits@D@std@@V?$allocator@D@2@@0@AAV10@@Z
_TEXT	SEGMENT
__Arg$ = 8						; size = 4
??$move@AAV?$basic_string@DU?$char_traits@D@std@@V?$allocator@D@2@@std@@@std@@YA$$QAV?$basic_string@DU?$char_traits@D@std@@V?$allocator@D@2@@0@AAV10@@Z PROC ; std::move<std::basic_string<char,std::char_traits<char>,std::allocator<char> > &>, COMDAT
; File c:\program files (x86)\microsoft visual studio\2017\community\vc\tools\msvc\14.13.26128\include\type_traits
; Line 1554
  00000	55		 push	 ebp
  00001	8b ec		 mov	 ebp, esp
  00003	81 ec c0 00 00
	00		 sub	 esp, 192		; 000000c0H
  00009	53		 push	 ebx
  0000a	56		 push	 esi
  0000b	57		 push	 edi
  0000c	8d bd 40 ff ff
	ff		 lea	 edi, DWORD PTR [ebp-192]
  00012	b9 30 00 00 00	 mov	 ecx, 48			; 00000030H
  00017	b8 cc cc cc cc	 mov	 eax, -858993460		; ccccccccH
  0001c	f3 ab		 rep stosd
; Line 1555
  0001e	8b 45 08	 mov	 eax, DWORD PTR __Arg$[ebp]
; Line 1556
  00021	5f		 pop	 edi
  00022	5e		 pop	 esi
  00023	5b		 pop	 ebx
  00024	8b e5		 mov	 esp, ebp
  00026	5d		 pop	 ebp
  00027	c3		 ret	 0
??$move@AAV?$basic_string@DU?$char_traits@D@std@@V?$allocator@D@2@@std@@@std@@YA$$QAV?$basic_string@DU?$char_traits@D@std@@V?$allocator@D@2@@0@AAV10@@Z ENDP ; std::move<std::basic_string<char,std::char_traits<char>,std::allocator<char> > &>
_TEXT	ENDS
; Function compile flags: /Odtp /RTCsu /ZI
;	COMDAT ??$?0V?$allocator@D@std@@X@?$_String_alloc@U?$_String_base_types@DV?$allocator@D@std@@@std@@@std@@QAE@$$QAV?$allocator@D@1@@Z
_TEXT	SEGMENT
$T2 = -221						; size = 1
_this$ = -20						; size = 4
__$EHRec$ = -12						; size = 12
__Al$ = 8						; size = 4
??$?0V?$allocator@D@std@@X@?$_String_alloc@U?$_String_base_types@DV?$allocator@D@std@@@std@@@std@@QAE@$$QAV?$allocator@D@1@@Z PROC ; std::_String_alloc<std::_String_base_types<char,std::allocator<char> > >::_String_alloc<std::_String_base_types<char,std::allocator<char> > ><std::allocator<char>,void>, COMDAT
; _this$ = ecx
; File c:\program files (x86)\microsoft visual studio\2017\community\vc\tools\msvc\14.13.26128\include\xstring
; Line 1920
  00000	55		 push	 ebp
  00001	8b ec		 mov	 ebp, esp
  00003	6a ff		 push	 -1
  00005	68 00 00 00 00	 push	 __ehhandler$??$?0V?$allocator@D@std@@X@?$_String_alloc@U?$_String_base_types@DV?$allocator@D@std@@@std@@@std@@QAE@$$QAV?$allocator@D@1@@Z
  0000a	64 a1 00 00 00
	00		 mov	 eax, DWORD PTR fs:0
  00010	50		 push	 eax
  00011	81 ec d8 00 00
	00		 sub	 esp, 216		; 000000d8H
  00017	53		 push	 ebx
  00018	56		 push	 esi
  00019	57		 push	 edi
  0001a	51		 push	 ecx
  0001b	8d bd 1c ff ff
	ff		 lea	 edi, DWORD PTR [ebp-228]
  00021	b9 36 00 00 00	 mov	 ecx, 54			; 00000036H
  00026	b8 cc cc cc cc	 mov	 eax, -858993460		; ccccccccH
  0002b	f3 ab		 rep stosd
  0002d	59		 pop	 ecx
  0002e	a1 00 00 00 00	 mov	 eax, DWORD PTR ___security_cookie
  00033	33 c5		 xor	 eax, ebp
  00035	50		 push	 eax
  00036	8d 45 f4	 lea	 eax, DWORD PTR __$EHRec$[ebp]
  00039	64 a3 00 00 00
	00		 mov	 DWORD PTR fs:0, eax
  0003f	89 4d ec	 mov	 DWORD PTR _this$[ebp], ecx
; Line 1918
  00042	8b 45 08	 mov	 eax, DWORD PTR __Al$[ebp]
  00045	50		 push	 eax
  00046	e8 00 00 00 00	 call	 ??$forward@V?$allocator@D@std@@@std@@YA$$QAV?$allocator@D@0@AAV10@@Z ; std::forward<std::allocator<char> >
  0004b	83 c4 04	 add	 esp, 4
  0004e	50		 push	 eax
  0004f	0f b6 8d 23 ff
	ff ff		 movzx	 ecx, BYTE PTR $T2[ebp]
  00056	51		 push	 ecx
  00057	8b 4d ec	 mov	 ecx, DWORD PTR _this$[ebp]
  0005a	e8 00 00 00 00	 call	 ??$?0V?$allocator@D@std@@$$V@?$_Compressed_pair@V?$allocator@D@std@@V?$_String_val@U?$_Simple_types@D@std@@@2@$00@std@@QAE@U_One_then_variadic_args_t@1@$$QAV?$allocator@D@1@@Z ; std::_Compressed_pair<std::allocator<char>,std::_String_val<std::_Simple_types<char> >,1>::_Compressed_pair<std::allocator<char>,std::_String_val<std::_Simple_types<char> >,1><std::allocator<char> >
  0005f	c7 45 fc 00 00
	00 00		 mov	 DWORD PTR __$EHRec$[ebp+8], 0
; Line 1921
  00066	8b 4d ec	 mov	 ecx, DWORD PTR _this$[ebp]
  00069	e8 00 00 00 00	 call	 ?_Alloc_proxy@?$_String_alloc@U?$_String_base_types@DV?$allocator@D@std@@@std@@@std@@QAEXXZ ; std::_String_alloc<std::_String_base_types<char,std::allocator<char> > >::_Alloc_proxy
; Line 1922
  0006e	c7 45 fc ff ff
	ff ff		 mov	 DWORD PTR __$EHRec$[ebp+8], -1
  00075	8b 45 ec	 mov	 eax, DWORD PTR _this$[ebp]
  00078	8b 4d f4	 mov	 ecx, DWORD PTR __$EHRec$[ebp]
  0007b	64 89 0d 00 00
	00 00		 mov	 DWORD PTR fs:0, ecx
  00082	59		 pop	 ecx
  00083	5f		 pop	 edi
  00084	5e		 pop	 esi
  00085	5b		 pop	 ebx
  00086	81 c4 e4 00 00
	00		 add	 esp, 228		; 000000e4H
  0008c	3b ec		 cmp	 ebp, esp
  0008e	e8 00 00 00 00	 call	 __RTC_CheckEsp
  00093	8b e5		 mov	 esp, ebp
  00095	5d		 pop	 ebp
  00096	c2 04 00	 ret	 4
_TEXT	ENDS
;	COMDAT text$x
text$x	SEGMENT
__unwindfunclet$??$?0V?$allocator@D@std@@X@?$_String_alloc@U?$_String_base_types@DV?$allocator@D@std@@@std@@@std@@QAE@$$QAV?$allocator@D@1@@Z$0:
  00000	8b 4d ec	 mov	 ecx, DWORD PTR _this$[ebp]
  00003	e9 00 00 00 00	 jmp	 ??1?$_Compressed_pair@V?$allocator@D@std@@V?$_String_val@U?$_Simple_types@D@std@@@2@$00@std@@QAE@XZ
__ehhandler$??$?0V?$allocator@D@std@@X@?$_String_alloc@U?$_String_base_types@DV?$allocator@D@std@@@std@@@std@@QAE@$$QAV?$allocator@D@1@@Z:
  00008	8b 54 24 08	 mov	 edx, DWORD PTR [esp+8]
  0000c	8d 42 0c	 lea	 eax, DWORD PTR [edx+12]
  0000f	8b 8a 18 ff ff
	ff		 mov	 ecx, DWORD PTR [edx-232]
  00015	33 c8		 xor	 ecx, eax
  00017	e8 00 00 00 00	 call	 @__security_check_cookie@4
  0001c	b8 00 00 00 00	 mov	 eax, OFFSET __ehfuncinfo$??$?0V?$allocator@D@std@@X@?$_String_alloc@U?$_String_base_types@DV?$allocator@D@std@@@std@@@std@@QAE@$$QAV?$allocator@D@1@@Z
  00021	e9 00 00 00 00	 jmp	 ___CxxFrameHandler3
text$x	ENDS
??$?0V?$allocator@D@std@@X@?$_String_alloc@U?$_String_base_types@DV?$allocator@D@std@@@std@@@std@@QAE@$$QAV?$allocator@D@1@@Z ENDP ; std::_String_alloc<std::_String_base_types<char,std::allocator<char> > >::_String_alloc<std::_String_base_types<char,std::allocator<char> > ><std::allocator<char>,void>
; Function compile flags: /Odtp /RTCsu /ZI
;	COMDAT ??$move@AAV?$allocator@D@std@@@std@@YA$$QAV?$allocator@D@0@AAV10@@Z
_TEXT	SEGMENT
__Arg$ = 8						; size = 4
??$move@AAV?$allocator@D@std@@@std@@YA$$QAV?$allocator@D@0@AAV10@@Z PROC ; std::move<std::allocator<char> &>, COMDAT
; File c:\program files (x86)\microsoft visual studio\2017\community\vc\tools\msvc\14.13.26128\include\type_traits
; Line 1554
  00000	55		 push	 ebp
  00001	8b ec		 mov	 ebp, esp
  00003	81 ec c0 00 00
	00		 sub	 esp, 192		; 000000c0H
  00009	53		 push	 ebx
  0000a	56		 push	 esi
  0000b	57		 push	 edi
  0000c	8d bd 40 ff ff
	ff		 lea	 edi, DWORD PTR [ebp-192]
  00012	b9 30 00 00 00	 mov	 ecx, 48			; 00000030H
  00017	b8 cc cc cc cc	 mov	 eax, -858993460		; ccccccccH
  0001c	f3 ab		 rep stosd
; Line 1555
  0001e	8b 45 08	 mov	 eax, DWORD PTR __Arg$[ebp]
; Line 1556
  00021	5f		 pop	 edi
  00022	5e		 pop	 esi
  00023	5b		 pop	 ebx
  00024	8b e5		 mov	 esp, ebp
  00026	5d		 pop	 ebp
  00027	c3		 ret	 0
??$move@AAV?$allocator@D@std@@@std@@YA$$QAV?$allocator@D@0@AAV10@@Z ENDP ; std::move<std::allocator<char> &>
_TEXT	ENDS
; Function compile flags: /Odtp /RTCsu /ZI
;	COMDAT ??$_Unfancy@D@std@@YAPADPAD@Z
_TEXT	SEGMENT
__Ptr$ = 8						; size = 4
??$_Unfancy@D@std@@YAPADPAD@Z PROC			; std::_Unfancy<char>, COMDAT
; File c:\program files (x86)\microsoft visual studio\2017\community\vc\tools\msvc\14.13.26128\include\xstddef
; Line 264
  00000	55		 push	 ebp
  00001	8b ec		 mov	 ebp, esp
  00003	81 ec c0 00 00
	00		 sub	 esp, 192		; 000000c0H
  00009	53		 push	 ebx
  0000a	56		 push	 esi
  0000b	57		 push	 edi
  0000c	8d bd 40 ff ff
	ff		 lea	 edi, DWORD PTR [ebp-192]
  00012	b9 30 00 00 00	 mov	 ecx, 48			; 00000030H
  00017	b8 cc cc cc cc	 mov	 eax, -858993460		; ccccccccH
  0001c	f3 ab		 rep stosd
; Line 265
  0001e	8b 45 08	 mov	 eax, DWORD PTR __Ptr$[ebp]
; Line 266
  00021	5f		 pop	 edi
  00022	5e		 pop	 esi
  00023	5b		 pop	 ebx
  00024	8b e5		 mov	 esp, ebp
  00026	5d		 pop	 ebp
  00027	c3		 ret	 0
??$_Unfancy@D@std@@YAPADPAD@Z ENDP			; std::_Unfancy<char>
_TEXT	ENDS
; Function compile flags: /Odtp /RTCsu /ZI
;	COMDAT ??$_Min_value@I@std@@YAABIABI0@Z
_TEXT	SEGMENT
tv65 = -208						; size = 4
$T1 = -200						; size = 4
__Left$ = 8						; size = 4
__Right$ = 12						; size = 4
??$_Min_value@I@std@@YAABIABI0@Z PROC			; std::_Min_value<unsigned int>, COMDAT
; File c:\program files (x86)\microsoft visual studio\2017\community\vc\tools\msvc\14.13.26128\include\utility
; Line 22
  00000	55		 push	 ebp
  00001	8b ec		 mov	 ebp, esp
  00003	81 ec d0 00 00
	00		 sub	 esp, 208		; 000000d0H
  00009	53		 push	 ebx
  0000a	56		 push	 esi
  0000b	57		 push	 edi
  0000c	8d bd 30 ff ff
	ff		 lea	 edi, DWORD PTR [ebp-208]
  00012	b9 34 00 00 00	 mov	 ecx, 52			; 00000034H
  00017	b8 cc cc cc cc	 mov	 eax, -858993460		; ccccccccH
  0001c	f3 ab		 rep stosd
; Line 23
  0001e	8b 45 0c	 mov	 eax, DWORD PTR __Right$[ebp]
  00021	8b 4d 08	 mov	 ecx, DWORD PTR __Left$[ebp]
  00024	8b 10		 mov	 edx, DWORD PTR [eax]
  00026	3b 11		 cmp	 edx, DWORD PTR [ecx]
  00028	73 0b		 jae	 SHORT $LN3@Min_value
  0002a	8b 45 0c	 mov	 eax, DWORD PTR __Right$[ebp]
  0002d	89 85 30 ff ff
	ff		 mov	 DWORD PTR tv65[ebp], eax
  00033	eb 09		 jmp	 SHORT $LN4@Min_value
$LN3@Min_value:
  00035	8b 4d 08	 mov	 ecx, DWORD PTR __Left$[ebp]
  00038	89 8d 30 ff ff
	ff		 mov	 DWORD PTR tv65[ebp], ecx
$LN4@Min_value:
  0003e	8b 95 30 ff ff
	ff		 mov	 edx, DWORD PTR tv65[ebp]
  00044	89 95 38 ff ff
	ff		 mov	 DWORD PTR $T1[ebp], edx
  0004a	8b 85 38 ff ff
	ff		 mov	 eax, DWORD PTR $T1[ebp]
; Line 24
  00050	5f		 pop	 edi
  00051	5e		 pop	 esi
  00052	5b		 pop	 ebx
  00053	8b e5		 mov	 esp, ebp
  00055	5d		 pop	 ebp
  00056	c3		 ret	 0
??$_Min_value@I@std@@YAABIABI0@Z ENDP			; std::_Min_value<unsigned int>
_TEXT	ENDS
; Function compile flags: /Odtp /RTCsu /ZI
;	COMDAT ??$?6U?$char_traits@D@std@@@std@@YAAAV?$basic_ostream@DU?$char_traits@D@std@@@0@AAV10@D@Z
_TEXT	SEGMENT
tv128 = -356						; size = 8
tv279 = -352						; size = 4
tv274 = -352						; size = 4
tv313 = -348						; size = 8
tv278 = -348						; size = 4
tv276 = -348						; size = 4
tv273 = -348						; size = 4
tv275 = -344						; size = 4
tv65 = -344						; size = 4
tv277 = -341						; size = 1
tv272 = -341						; size = 1
$T2 = -336						; size = 4
$T3 = -324						; size = 4
$T4 = -312						; size = 4
$T5 = -300						; size = 4
$T6 = -288						; size = 4
$T7 = -276						; size = 4
$T8 = -264						; size = 4
__Pad$9 = -60						; size = 8
__Ok$ = -44						; size = 8
__State$ = -28						; size = 4
__$ArrayPad$ = -20					; size = 4
__$EHRec$ = -16						; size = 16
__Ostr$ = 8						; size = 4
__Ch$ = 12						; size = 1
??$?6U?$char_traits@D@std@@@std@@YAAAV?$basic_ostream@DU?$char_traits@D@std@@@0@AAV10@D@Z PROC ; std::operator<<<std::char_traits<char> >, COMDAT
; File c:\program files (x86)\microsoft visual studio\2017\community\vc\tools\msvc\14.13.26128\include\ostream
; Line 815
  00000	55		 push	 ebp
  00001	8b ec		 mov	 ebp, esp
  00003	6a ff		 push	 -1
  00005	68 00 00 00 00	 push	 __ehhandler$??$?6U?$char_traits@D@std@@@std@@YAAAV?$basic_ostream@DU?$char_traits@D@std@@@0@AAV10@D@Z
  0000a	64 a1 00 00 00
	00		 mov	 eax, DWORD PTR fs:0
  00010	50		 push	 eax
  00011	51		 push	 ecx
  00012	81 ec 54 01 00
	00		 sub	 esp, 340		; 00000154H
  00018	53		 push	 ebx
  00019	56		 push	 esi
  0001a	57		 push	 edi
  0001b	8d bd 9c fe ff
	ff		 lea	 edi, DWORD PTR [ebp-356]
  00021	b9 55 00 00 00	 mov	 ecx, 85			; 00000055H
  00026	b8 cc cc cc cc	 mov	 eax, -858993460		; ccccccccH
  0002b	f3 ab		 rep stosd
  0002d	a1 00 00 00 00	 mov	 eax, DWORD PTR ___security_cookie
  00032	33 c5		 xor	 eax, ebp
  00034	89 45 ec	 mov	 DWORD PTR __$ArrayPad$[ebp], eax
  00037	50		 push	 eax
  00038	8d 45 f4	 lea	 eax, DWORD PTR __$EHRec$[ebp+4]
  0003b	64 a3 00 00 00
	00		 mov	 DWORD PTR fs:0, eax
  00041	89 65 f0	 mov	 DWORD PTR __$EHRec$[ebp], esp
; Line 818
  00044	c7 45 e4 00 00
	00 00		 mov	 DWORD PTR __State$[ebp], 0
; Line 819
  0004b	8b 45 08	 mov	 eax, DWORD PTR __Ostr$[ebp]
  0004e	50		 push	 eax
  0004f	8d 4d d4	 lea	 ecx, DWORD PTR __Ok$[ebp]
  00052	e8 00 00 00 00	 call	 ??0sentry@?$basic_ostream@DU?$char_traits@D@std@@@std@@QAE@AAV12@@Z ; std::basic_ostream<char,std::char_traits<char> >::sentry::sentry
  00057	c7 45 fc 00 00
	00 00		 mov	 DWORD PTR __$EHRec$[ebp+12], 0
; Line 821
  0005e	8d 4d d4	 lea	 ecx, DWORD PTR __Ok$[ebp]
  00061	e8 00 00 00 00	 call	 ??Bsentry@?$basic_ostream@DU?$char_traits@D@std@@@std@@QBE_NXZ ; std::basic_ostream<char,std::char_traits<char> >::sentry::operator bool
  00066	0f b6 c0	 movzx	 eax, al
  00069	85 c0		 test	 eax, eax
  0006b	0f 84 3a 03 00
	00		 je	 $LN8@operator
; Line 823
  00071	8b 45 08	 mov	 eax, DWORD PTR __Ostr$[ebp]
  00074	8b 08		 mov	 ecx, DWORD PTR [eax]
  00076	8b 55 08	 mov	 edx, DWORD PTR __Ostr$[ebp]
  00079	03 51 04	 add	 edx, DWORD PTR [ecx+4]
  0007c	8b f4		 mov	 esi, esp
  0007e	8b ca		 mov	 ecx, edx
  00080	ff 15 00 00 00
	00		 call	 DWORD PTR __imp_?width@ios_base@std@@QBE_JXZ
  00086	3b f4		 cmp	 esi, esp
  00088	e8 00 00 00 00	 call	 __RTC_CheckEsp
  0008d	89 85 a4 fe ff
	ff		 mov	 DWORD PTR tv313[ebp], eax
  00093	89 95 a8 fe ff
	ff		 mov	 DWORD PTR tv313[ebp+4], edx
  00099	83 bd a8 fe ff
	ff 00		 cmp	 DWORD PTR tv313[ebp+4], 0
  000a0	7f 18		 jg	 SHORT $LN15@operator
  000a2	7c 09		 jl	 SHORT $LN22@operator
  000a4	83 bd a4 fe ff
	ff 01		 cmp	 DWORD PTR tv313[ebp], 1
  000ab	77 0d		 ja	 SHORT $LN15@operator
$LN22@operator:
  000ad	0f 57 c0	 xorps	 xmm0, xmm0
  000b0	66 0f 13 85 9c
	fe ff ff	 movlpd	 QWORD PTR tv128[ebp], xmm0
  000b8	eb 2e		 jmp	 SHORT $LN16@operator
$LN15@operator:
  000ba	8b 45 08	 mov	 eax, DWORD PTR __Ostr$[ebp]
  000bd	8b 08		 mov	 ecx, DWORD PTR [eax]
  000bf	8b 55 08	 mov	 edx, DWORD PTR __Ostr$[ebp]
  000c2	03 51 04	 add	 edx, DWORD PTR [ecx+4]
  000c5	8b f4		 mov	 esi, esp
  000c7	8b ca		 mov	 ecx, edx
  000c9	ff 15 00 00 00
	00		 call	 DWORD PTR __imp_?width@ios_base@std@@QBE_JXZ
  000cf	3b f4		 cmp	 esi, esp
  000d1	e8 00 00 00 00	 call	 __RTC_CheckEsp
  000d6	83 e8 01	 sub	 eax, 1
  000d9	83 da 00	 sbb	 edx, 0
  000dc	89 85 9c fe ff
	ff		 mov	 DWORD PTR tv128[ebp], eax
  000e2	89 95 a0 fe ff
	ff		 mov	 DWORD PTR tv128[ebp+4], edx
$LN16@operator:
  000e8	8b 85 9c fe ff
	ff		 mov	 eax, DWORD PTR tv128[ebp]
  000ee	89 45 c4	 mov	 DWORD PTR __Pad$9[ebp], eax
  000f1	8b 8d a0 fe ff
	ff		 mov	 ecx, DWORD PTR tv128[ebp+4]
  000f7	89 4d c8	 mov	 DWORD PTR __Pad$9[ebp+4], ecx
; Line 825
  000fa	c6 45 fc 01	 mov	 BYTE PTR __$EHRec$[ebp+12], 1
; Line 826
  000fe	8b 45 08	 mov	 eax, DWORD PTR __Ostr$[ebp]
  00101	8b 08		 mov	 ecx, DWORD PTR [eax]
  00103	8b 55 08	 mov	 edx, DWORD PTR __Ostr$[ebp]
  00106	03 51 04	 add	 edx, DWORD PTR [ecx+4]
  00109	8b f4		 mov	 esi, esp
  0010b	8b ca		 mov	 ecx, edx
  0010d	ff 15 00 00 00
	00		 call	 DWORD PTR __imp_?flags@ios_base@std@@QBEHXZ
  00113	3b f4		 cmp	 esi, esp
  00115	e8 00 00 00 00	 call	 __RTC_CheckEsp
  0011a	89 85 a8 fe ff
	ff		 mov	 DWORD PTR tv65[ebp], eax
  00120	8b 85 a8 fe ff
	ff		 mov	 eax, DWORD PTR tv65[ebp]
  00126	25 c0 01 00 00	 and	 eax, 448		; 000001c0H
  0012b	83 f8 40	 cmp	 eax, 64			; 00000040H
  0012e	0f 84 dd 00 00
	00		 je	 $LN10@operator
; Line 827
  00134	eb 12		 jmp	 SHORT $LN4@operator
$LN2@operator:
; Line 828
  00136	8b 45 c4	 mov	 eax, DWORD PTR __Pad$9[ebp]
  00139	83 e8 01	 sub	 eax, 1
  0013c	8b 4d c8	 mov	 ecx, DWORD PTR __Pad$9[ebp+4]
  0013f	83 d9 00	 sbb	 ecx, 0
  00142	89 45 c4	 mov	 DWORD PTR __Pad$9[ebp], eax
  00145	89 4d c8	 mov	 DWORD PTR __Pad$9[ebp+4], ecx
$LN4@operator:
; Line 827
  00148	83 7d e4 00	 cmp	 DWORD PTR __State$[ebp], 0
  0014c	0f 85 bf 00 00
	00		 jne	 $LN10@operator
  00152	83 7d c8 00	 cmp	 DWORD PTR __Pad$9[ebp+4], 0
  00156	0f 8c b5 00 00
	00		 jl	 $LN10@operator
  0015c	7f 0a		 jg	 SHORT $LN23@operator
  0015e	83 7d c4 00	 cmp	 DWORD PTR __Pad$9[ebp], 0
  00162	0f 86 a9 00 00
	00		 jbe	 $LN10@operator
$LN23@operator:
; Line 829
  00168	8b 45 08	 mov	 eax, DWORD PTR __Ostr$[ebp]
  0016b	8b 08		 mov	 ecx, DWORD PTR [eax]
  0016d	8b 55 08	 mov	 edx, DWORD PTR __Ostr$[ebp]
  00170	03 51 04	 add	 edx, DWORD PTR [ecx+4]
  00173	8b f4		 mov	 esi, esp
  00175	8b ca		 mov	 ecx, edx
  00177	ff 15 00 00 00
	00		 call	 DWORD PTR __imp_?fill@?$basic_ios@DU?$char_traits@D@std@@@std@@QBEDXZ
  0017d	3b f4		 cmp	 esi, esp
  0017f	e8 00 00 00 00	 call	 __RTC_CheckEsp
  00184	88 85 ab fe ff
	ff		 mov	 BYTE PTR tv272[ebp], al
  0018a	8b 45 08	 mov	 eax, DWORD PTR __Ostr$[ebp]
  0018d	8b 08		 mov	 ecx, DWORD PTR [eax]
  0018f	8b 55 08	 mov	 edx, DWORD PTR __Ostr$[ebp]
  00192	03 51 04	 add	 edx, DWORD PTR [ecx+4]
  00195	8b f4		 mov	 esi, esp
  00197	8b ca		 mov	 ecx, edx
  00199	ff 15 00 00 00
	00		 call	 DWORD PTR __imp_?rdbuf@?$basic_ios@DU?$char_traits@D@std@@@std@@QBEPAV?$basic_streambuf@DU?$char_traits@D@std@@@2@XZ
  0019f	3b f4		 cmp	 esi, esp
  001a1	e8 00 00 00 00	 call	 __RTC_CheckEsp
  001a6	89 85 a4 fe ff
	ff		 mov	 DWORD PTR tv273[ebp], eax
  001ac	8b f4		 mov	 esi, esp
  001ae	0f b6 85 ab fe
	ff ff		 movzx	 eax, BYTE PTR tv272[ebp]
  001b5	50		 push	 eax
  001b6	8b 8d a4 fe ff
	ff		 mov	 ecx, DWORD PTR tv273[ebp]
  001bc	ff 15 00 00 00
	00		 call	 DWORD PTR __imp_?sputc@?$basic_streambuf@DU?$char_traits@D@std@@@std@@QAEHD@Z
  001c2	3b f4		 cmp	 esi, esp
  001c4	e8 00 00 00 00	 call	 __RTC_CheckEsp
  001c9	89 85 a0 fe ff
	ff		 mov	 DWORD PTR tv274[ebp], eax
  001cf	8b 8d a0 fe ff
	ff		 mov	 ecx, DWORD PTR tv274[ebp]
  001d5	89 8d f8 fe ff
	ff		 mov	 DWORD PTR $T8[ebp], ecx
  001db	e8 00 00 00 00	 call	 ?eof@?$char_traits@D@std@@SAHXZ ; std::char_traits<char>::eof
  001e0	89 85 ec fe ff
	ff		 mov	 DWORD PTR $T7[ebp], eax
  001e6	8d 95 f8 fe ff
	ff		 lea	 edx, DWORD PTR $T8[ebp]
  001ec	52		 push	 edx
  001ed	8d 85 ec fe ff
	ff		 lea	 eax, DWORD PTR $T7[ebp]
  001f3	50		 push	 eax
  001f4	e8 00 00 00 00	 call	 ?eq_int_type@?$char_traits@D@std@@SA_NABH0@Z ; std::char_traits<char>::eq_int_type
  001f9	83 c4 08	 add	 esp, 8
  001fc	0f b6 c8	 movzx	 ecx, al
  001ff	85 c9		 test	 ecx, ecx
  00201	74 09		 je	 SHORT $LN11@operator
; Line 831
  00203	8b 45 e4	 mov	 eax, DWORD PTR __State$[ebp]
  00206	83 c8 04	 or	 eax, 4
  00209	89 45 e4	 mov	 DWORD PTR __State$[ebp], eax
$LN11@operator:
; Line 833
  0020c	e9 25 ff ff ff	 jmp	 $LN2@operator
$LN10@operator:
; Line 834
  00211	83 7d e4 00	 cmp	 DWORD PTR __State$[ebp], 0
  00215	75 7f		 jne	 SHORT $LN12@operator
  00217	8b 45 08	 mov	 eax, DWORD PTR __Ostr$[ebp]
  0021a	8b 08		 mov	 ecx, DWORD PTR [eax]
  0021c	8b 55 08	 mov	 edx, DWORD PTR __Ostr$[ebp]
  0021f	03 51 04	 add	 edx, DWORD PTR [ecx+4]
  00222	8b f4		 mov	 esi, esp
  00224	8b ca		 mov	 ecx, edx
  00226	ff 15 00 00 00
	00		 call	 DWORD PTR __imp_?rdbuf@?$basic_ios@DU?$char_traits@D@std@@@std@@QBEPAV?$basic_streambuf@DU?$char_traits@D@std@@@2@XZ
  0022c	3b f4		 cmp	 esi, esp
  0022e	e8 00 00 00 00	 call	 __RTC_CheckEsp
  00233	89 85 a8 fe ff
	ff		 mov	 DWORD PTR tv275[ebp], eax
  00239	8b f4		 mov	 esi, esp
  0023b	0f b6 45 0c	 movzx	 eax, BYTE PTR __Ch$[ebp]
  0023f	50		 push	 eax
  00240	8b 8d a8 fe ff
	ff		 mov	 ecx, DWORD PTR tv275[ebp]
  00246	ff 15 00 00 00
	00		 call	 DWORD PTR __imp_?sputc@?$basic_streambuf@DU?$char_traits@D@std@@@std@@QAEHD@Z
  0024c	3b f4		 cmp	 esi, esp
  0024e	e8 00 00 00 00	 call	 __RTC_CheckEsp
  00253	89 85 a4 fe ff
	ff		 mov	 DWORD PTR tv276[ebp], eax
  00259	8b 8d a4 fe ff
	ff		 mov	 ecx, DWORD PTR tv276[ebp]
  0025f	89 8d e0 fe ff
	ff		 mov	 DWORD PTR $T6[ebp], ecx
  00265	e8 00 00 00 00	 call	 ?eof@?$char_traits@D@std@@SAHXZ ; std::char_traits<char>::eof
  0026a	89 85 d4 fe ff
	ff		 mov	 DWORD PTR $T5[ebp], eax
  00270	8d 95 e0 fe ff
	ff		 lea	 edx, DWORD PTR $T6[ebp]
  00276	52		 push	 edx
  00277	8d 85 d4 fe ff
	ff		 lea	 eax, DWORD PTR $T5[ebp]
  0027d	50		 push	 eax
  0027e	e8 00 00 00 00	 call	 ?eq_int_type@?$char_traits@D@std@@SA_NABH0@Z ; std::char_traits<char>::eq_int_type
  00283	83 c4 08	 add	 esp, 8
  00286	0f b6 c8	 movzx	 ecx, al
  00289	85 c9		 test	 ecx, ecx
  0028b	74 09		 je	 SHORT $LN12@operator
; Line 836
  0028d	8b 45 e4	 mov	 eax, DWORD PTR __State$[ebp]
  00290	83 c8 04	 or	 eax, 4
  00293	89 45 e4	 mov	 DWORD PTR __State$[ebp], eax
$LN12@operator:
; Line 838
  00296	eb 12		 jmp	 SHORT $LN7@operator
$LN5@operator:
; Line 839
  00298	8b 45 c4	 mov	 eax, DWORD PTR __Pad$9[ebp]
  0029b	83 e8 01	 sub	 eax, 1
  0029e	8b 4d c8	 mov	 ecx, DWORD PTR __Pad$9[ebp+4]
  002a1	83 d9 00	 sbb	 ecx, 0
  002a4	89 45 c4	 mov	 DWORD PTR __Pad$9[ebp], eax
  002a7	89 4d c8	 mov	 DWORD PTR __Pad$9[ebp+4], ecx
$LN7@operator:
; Line 838
  002aa	83 7d e4 00	 cmp	 DWORD PTR __State$[ebp], 0
  002ae	0f 85 bf 00 00
	00		 jne	 $LN6@operator
  002b4	83 7d c8 00	 cmp	 DWORD PTR __Pad$9[ebp+4], 0
  002b8	0f 8c b5 00 00
	00		 jl	 $LN6@operator
  002be	7f 0a		 jg	 SHORT $LN24@operator
  002c0	83 7d c4 00	 cmp	 DWORD PTR __Pad$9[ebp], 0
  002c4	0f 86 a9 00 00
	00		 jbe	 $LN6@operator
$LN24@operator:
; Line 840
  002ca	8b 45 08	 mov	 eax, DWORD PTR __Ostr$[ebp]
  002cd	8b 08		 mov	 ecx, DWORD PTR [eax]
  002cf	8b 55 08	 mov	 edx, DWORD PTR __Ostr$[ebp]
  002d2	03 51 04	 add	 edx, DWORD PTR [ecx+4]
  002d5	8b f4		 mov	 esi, esp
  002d7	8b ca		 mov	 ecx, edx
  002d9	ff 15 00 00 00
	00		 call	 DWORD PTR __imp_?fill@?$basic_ios@DU?$char_traits@D@std@@@std@@QBEDXZ
  002df	3b f4		 cmp	 esi, esp
  002e1	e8 00 00 00 00	 call	 __RTC_CheckEsp
  002e6	88 85 ab fe ff
	ff		 mov	 BYTE PTR tv277[ebp], al
  002ec	8b 45 08	 mov	 eax, DWORD PTR __Ostr$[ebp]
  002ef	8b 08		 mov	 ecx, DWORD PTR [eax]
  002f1	8b 55 08	 mov	 edx, DWORD PTR __Ostr$[ebp]
  002f4	03 51 04	 add	 edx, DWORD PTR [ecx+4]
  002f7	8b f4		 mov	 esi, esp
  002f9	8b ca		 mov	 ecx, edx
  002fb	ff 15 00 00 00
	00		 call	 DWORD PTR __imp_?rdbuf@?$basic_ios@DU?$char_traits@D@std@@@std@@QBEPAV?$basic_streambuf@DU?$char_traits@D@std@@@2@XZ
  00301	3b f4		 cmp	 esi, esp
  00303	e8 00 00 00 00	 call	 __RTC_CheckEsp
  00308	89 85 a4 fe ff
	ff		 mov	 DWORD PTR tv278[ebp], eax
  0030e	8b f4		 mov	 esi, esp
  00310	0f b6 85 ab fe
	ff ff		 movzx	 eax, BYTE PTR tv277[ebp]
  00317	50		 push	 eax
  00318	8b 8d a4 fe ff
	ff		 mov	 ecx, DWORD PTR tv278[ebp]
  0031e	ff 15 00 00 00
	00		 call	 DWORD PTR __imp_?sputc@?$basic_streambuf@DU?$char_traits@D@std@@@std@@QAEHD@Z
  00324	3b f4		 cmp	 esi, esp
  00326	e8 00 00 00 00	 call	 __RTC_CheckEsp
  0032b	89 85 a0 fe ff
	ff		 mov	 DWORD PTR tv279[ebp], eax
  00331	8b 8d a0 fe ff
	ff		 mov	 ecx, DWORD PTR tv279[ebp]
  00337	89 8d c8 fe ff
	ff		 mov	 DWORD PTR $T4[ebp], ecx
  0033d	e8 00 00 00 00	 call	 ?eof@?$char_traits@D@std@@SAHXZ ; std::char_traits<char>::eof
  00342	89 85 bc fe ff
	ff		 mov	 DWORD PTR $T3[ebp], eax
  00348	8d 95 c8 fe ff
	ff		 lea	 edx, DWORD PTR $T4[ebp]
  0034e	52		 push	 edx
  0034f	8d 85 bc fe ff
	ff		 lea	 eax, DWORD PTR $T3[ebp]
  00355	50		 push	 eax
  00356	e8 00 00 00 00	 call	 ?eq_int_type@?$char_traits@D@std@@SA_NABH0@Z ; std::char_traits<char>::eq_int_type
  0035b	83 c4 08	 add	 esp, 8
  0035e	0f b6 c8	 movzx	 ecx, al
  00361	85 c9		 test	 ecx, ecx
  00363	74 09		 je	 SHORT $LN13@operator
; Line 842
  00365	8b 45 e4	 mov	 eax, DWORD PTR __State$[ebp]
  00368	83 c8 04	 or	 eax, 4
  0036b	89 45 e4	 mov	 DWORD PTR __State$[ebp], eax
$LN13@operator:
; Line 843
  0036e	e9 25 ff ff ff	 jmp	 $LN5@operator
$LN6@operator:
  00373	eb 26		 jmp	 SHORT $LN17@operator
__catch$??$?6U?$char_traits@D@std@@@std@@YAAAV?$basic_ostream@DU?$char_traits@D@std@@@0@AAV10@D@Z$0:
  00375	8b f4		 mov	 esi, esp
  00377	6a 01		 push	 1
  00379	6a 04		 push	 4
  0037b	8b 45 08	 mov	 eax, DWORD PTR __Ostr$[ebp]
  0037e	8b 08		 mov	 ecx, DWORD PTR [eax]
  00380	8b 55 08	 mov	 edx, DWORD PTR __Ostr$[ebp]
  00383	03 51 04	 add	 edx, DWORD PTR [ecx+4]
  00386	8b ca		 mov	 ecx, edx
  00388	ff 15 00 00 00
	00		 call	 DWORD PTR __imp_?setstate@?$basic_ios@DU?$char_traits@D@std@@@std@@QAEXH_N@Z
  0038e	3b f4		 cmp	 esi, esp
  00390	e8 00 00 00 00	 call	 __RTC_CheckEsp
  00395	b8 00 00 00 00	 mov	 eax, $LN21@operator
  0039a	c3		 ret	 0
$LN17@operator:
  0039b	c7 45 fc 00 00
	00 00		 mov	 DWORD PTR __$EHRec$[ebp+12], 0
  003a2	eb 07		 jmp	 SHORT $LN8@operator
$LN21@operator:
  003a4	c7 45 fc 00 00
	00 00		 mov	 DWORD PTR __$EHRec$[ebp+12], 0
$LN8@operator:
; Line 846
  003ab	8b f4		 mov	 esi, esp
  003ad	6a 00		 push	 0
  003af	6a 00		 push	 0
  003b1	8b 45 08	 mov	 eax, DWORD PTR __Ostr$[ebp]
  003b4	8b 08		 mov	 ecx, DWORD PTR [eax]
  003b6	8b 55 08	 mov	 edx, DWORD PTR __Ostr$[ebp]
  003b9	03 51 04	 add	 edx, DWORD PTR [ecx+4]
  003bc	8b ca		 mov	 ecx, edx
  003be	ff 15 00 00 00
	00		 call	 DWORD PTR __imp_?width@ios_base@std@@QAE_J_J@Z
  003c4	3b f4		 cmp	 esi, esp
  003c6	e8 00 00 00 00	 call	 __RTC_CheckEsp
; Line 847
  003cb	8b f4		 mov	 esi, esp
  003cd	6a 00		 push	 0
  003cf	8b 45 e4	 mov	 eax, DWORD PTR __State$[ebp]
  003d2	50		 push	 eax
  003d3	8b 4d 08	 mov	 ecx, DWORD PTR __Ostr$[ebp]
  003d6	8b 11		 mov	 edx, DWORD PTR [ecx]
  003d8	8b 4d 08	 mov	 ecx, DWORD PTR __Ostr$[ebp]
  003db	03 4a 04	 add	 ecx, DWORD PTR [edx+4]
  003de	ff 15 00 00 00
	00		 call	 DWORD PTR __imp_?setstate@?$basic_ios@DU?$char_traits@D@std@@@std@@QAEXH_N@Z
  003e4	3b f4		 cmp	 esi, esp
  003e6	e8 00 00 00 00	 call	 __RTC_CheckEsp
; Line 848
  003eb	8b 45 08	 mov	 eax, DWORD PTR __Ostr$[ebp]
  003ee	89 85 b0 fe ff
	ff		 mov	 DWORD PTR $T2[ebp], eax
  003f4	c7 45 fc ff ff
	ff ff		 mov	 DWORD PTR __$EHRec$[ebp+12], -1
  003fb	8d 4d d4	 lea	 ecx, DWORD PTR __Ok$[ebp]
  003fe	e8 00 00 00 00	 call	 ??1sentry@?$basic_ostream@DU?$char_traits@D@std@@@std@@QAE@XZ ; std::basic_ostream<char,std::char_traits<char> >::sentry::~sentry
  00403	8b 85 b0 fe ff
	ff		 mov	 eax, DWORD PTR $T2[ebp]
; Line 849
  00409	52		 push	 edx
  0040a	8b cd		 mov	 ecx, ebp
  0040c	50		 push	 eax
  0040d	8d 15 00 00 00
	00		 lea	 edx, DWORD PTR $LN28@operator
  00413	e8 00 00 00 00	 call	 @_RTC_CheckStackVars@8
  00418	58		 pop	 eax
  00419	5a		 pop	 edx
  0041a	8b 4d f4	 mov	 ecx, DWORD PTR __$EHRec$[ebp+4]
  0041d	64 89 0d 00 00
	00 00		 mov	 DWORD PTR fs:0, ecx
  00424	59		 pop	 ecx
  00425	5f		 pop	 edi
  00426	5e		 pop	 esi
  00427	5b		 pop	 ebx
  00428	8b 4d ec	 mov	 ecx, DWORD PTR __$ArrayPad$[ebp]
  0042b	33 cd		 xor	 ecx, ebp
  0042d	e8 00 00 00 00	 call	 @__security_check_cookie@4
  00432	81 c4 64 01 00
	00		 add	 esp, 356		; 00000164H
  00438	3b ec		 cmp	 ebp, esp
  0043a	e8 00 00 00 00	 call	 __RTC_CheckEsp
  0043f	8b e5		 mov	 esp, ebp
  00441	5d		 pop	 ebp
  00442	c3		 ret	 0
  00443	90		 npad	 1
$LN28@operator:
  00444	01 00 00 00	 DD	 1
  00448	00 00 00 00	 DD	 $LN27@operator
$LN27@operator:
  0044c	d4 ff ff ff	 DD	 -44			; ffffffd4H
  00450	08 00 00 00	 DD	 8
  00454	00 00 00 00	 DD	 $LN25@operator
$LN25@operator:
  00458	5f		 DB	 95			; 0000005fH
  00459	4f		 DB	 79			; 0000004fH
  0045a	6b		 DB	 107			; 0000006bH
  0045b	00		 DB	 0
_TEXT	ENDS
;	COMDAT text$x
text$x	SEGMENT
__unwindfunclet$??$?6U?$char_traits@D@std@@@std@@YAAAV?$basic_ostream@DU?$char_traits@D@std@@@0@AAV10@D@Z$2:
  00000	8d 4d d4	 lea	 ecx, DWORD PTR __Ok$[ebp]
  00003	e9 00 00 00 00	 jmp	 ??1sentry@?$basic_ostream@DU?$char_traits@D@std@@@std@@QAE@XZ ; std::basic_ostream<char,std::char_traits<char> >::sentry::~sentry
__ehhandler$??$?6U?$char_traits@D@std@@@std@@YAAAV?$basic_ostream@DU?$char_traits@D@std@@@0@AAV10@D@Z:
  00008	8b 54 24 08	 mov	 edx, DWORD PTR [esp+8]
  0000c	8d 42 0c	 lea	 eax, DWORD PTR [edx+12]
  0000f	8b 8a 98 fe ff
	ff		 mov	 ecx, DWORD PTR [edx-360]
  00015	33 c8		 xor	 ecx, eax
  00017	e8 00 00 00 00	 call	 @__security_check_cookie@4
  0001c	8b 4a f8	 mov	 ecx, DWORD PTR [edx-8]
  0001f	33 c8		 xor	 ecx, eax
  00021	e8 00 00 00 00	 call	 @__security_check_cookie@4
  00026	b8 00 00 00 00	 mov	 eax, OFFSET __ehfuncinfo$??$?6U?$char_traits@D@std@@@std@@YAAAV?$basic_ostream@DU?$char_traits@D@std@@@0@AAV10@D@Z
  0002b	e9 00 00 00 00	 jmp	 ___CxxFrameHandler3
text$x	ENDS
??$?6U?$char_traits@D@std@@@std@@YAAAV?$basic_ostream@DU?$char_traits@D@std@@@0@AAV10@D@Z ENDP ; std::operator<<<std::char_traits<char> >
; Function compile flags: /Odtp /RTCsu /ZI
;	COMDAT ??$?6DU?$char_traits@D@std@@V?$allocator@D@1@@std@@YAAAV?$basic_ostream@DU?$char_traits@D@std@@@0@AAV10@ABV?$basic_string@DU?$char_traits@D@std@@V?$allocator@D@2@@0@@Z
_TEXT	SEGMENT
__Ostr$ = 8						; size = 4
__Str$ = 12						; size = 4
??$?6DU?$char_traits@D@std@@V?$allocator@D@1@@std@@YAAAV?$basic_ostream@DU?$char_traits@D@std@@@0@AAV10@ABV?$basic_string@DU?$char_traits@D@std@@V?$allocator@D@2@@0@@Z PROC ; std::operator<<<char,std::char_traits<char>,std::allocator<char> >, COMDAT
; File c:\program files (x86)\microsoft visual studio\2017\community\vc\tools\msvc\14.13.26128\include\string
; Line 172
  00000	55		 push	 ebp
  00001	8b ec		 mov	 ebp, esp
  00003	81 ec c0 00 00
	00		 sub	 esp, 192		; 000000c0H
  00009	53		 push	 ebx
  0000a	56		 push	 esi
  0000b	57		 push	 edi
  0000c	8d bd 40 ff ff
	ff		 lea	 edi, DWORD PTR [ebp-192]
  00012	b9 30 00 00 00	 mov	 ecx, 48			; 00000030H
  00017	b8 cc cc cc cc	 mov	 eax, -858993460		; ccccccccH
  0001c	f3 ab		 rep stosd
; Line 173
  0001e	8b 4d 0c	 mov	 ecx, DWORD PTR __Str$[ebp]
  00021	e8 00 00 00 00	 call	 ?size@?$basic_string@DU?$char_traits@D@std@@V?$allocator@D@2@@std@@QBEIXZ ; std::basic_string<char,std::char_traits<char>,std::allocator<char> >::size
  00026	50		 push	 eax
  00027	8b 4d 0c	 mov	 ecx, DWORD PTR __Str$[ebp]
  0002a	e8 00 00 00 00	 call	 ?data@?$basic_string@DU?$char_traits@D@std@@V?$allocator@D@2@@std@@QBEPBDXZ ; std::basic_string<char,std::char_traits<char>,std::allocator<char> >::data
  0002f	50		 push	 eax
  00030	8b 45 08	 mov	 eax, DWORD PTR __Ostr$[ebp]
  00033	50		 push	 eax
  00034	e8 00 00 00 00	 call	 ??$_Insert_string@DU?$char_traits@D@std@@I@std@@YAAAV?$basic_ostream@DU?$char_traits@D@std@@@0@AAV10@QBDI@Z ; std::_Insert_string<char,std::char_traits<char>,unsigned int>
  00039	83 c4 0c	 add	 esp, 12			; 0000000cH
; Line 174
  0003c	5f		 pop	 edi
  0003d	5e		 pop	 esi
  0003e	5b		 pop	 ebx
  0003f	81 c4 c0 00 00
	00		 add	 esp, 192		; 000000c0H
  00045	3b ec		 cmp	 ebp, esp
  00047	e8 00 00 00 00	 call	 __RTC_CheckEsp
  0004c	8b e5		 mov	 esp, ebp
  0004e	5d		 pop	 ebp
  0004f	c3		 ret	 0
??$?6DU?$char_traits@D@std@@V?$allocator@D@1@@std@@YAAAV?$basic_ostream@DU?$char_traits@D@std@@@0@AAV10@ABV?$basic_string@DU?$char_traits@D@std@@V?$allocator@D@2@@0@@Z ENDP ; std::operator<<<char,std::char_traits<char>,std::allocator<char> >
_TEXT	ENDS
; Function compile flags: /Odtp /RTCsu /ZI
;	COMDAT ??$to_string@DU?$char_traits@D@std@@V?$allocator@D@2@@?$bitset@$0BI@@std@@QBE?AV?$basic_string@DU?$char_traits@D@std@@V?$allocator@D@2@@1@DD@Z
_TEXT	SEGMENT
$T2 = -276						; size = 4
__Pos$ = -72						; size = 4
__Str$ = -60						; size = 28
_this$ = -24						; size = 4
__$ArrayPad$ = -16					; size = 4
__$EHRec$ = -12						; size = 12
___$ReturnUdt$ = 8					; size = 4
__E0$ = 12						; size = 1
__E1$ = 16						; size = 1
??$to_string@DU?$char_traits@D@std@@V?$allocator@D@2@@?$bitset@$0BI@@std@@QBE?AV?$basic_string@DU?$char_traits@D@std@@V?$allocator@D@2@@1@DD@Z PROC ; std::bitset<24>::to_string<char,std::char_traits<char>,std::allocator<char> >, COMDAT
; _this$ = ecx
; File c:\program files (x86)\microsoft visual studio\2017\community\vc\tools\msvc\14.13.26128\include\bitset
; Line 344
  00000	55		 push	 ebp
  00001	8b ec		 mov	 ebp, esp
  00003	6a ff		 push	 -1
  00005	68 00 00 00 00	 push	 __ehhandler$??$to_string@DU?$char_traits@D@std@@V?$allocator@D@2@@?$bitset@$0BI@@std@@QBE?AV?$basic_string@DU?$char_traits@D@std@@V?$allocator@D@2@@1@DD@Z
  0000a	64 a1 00 00 00
	00		 mov	 eax, DWORD PTR fs:0
  00010	50		 push	 eax
  00011	81 ec 0c 01 00
	00		 sub	 esp, 268		; 0000010cH
  00017	53		 push	 ebx
  00018	56		 push	 esi
  00019	57		 push	 edi
  0001a	51		 push	 ecx
  0001b	8d bd e8 fe ff
	ff		 lea	 edi, DWORD PTR [ebp-280]
  00021	b9 43 00 00 00	 mov	 ecx, 67			; 00000043H
  00026	b8 cc cc cc cc	 mov	 eax, -858993460		; ccccccccH
  0002b	f3 ab		 rep stosd
  0002d	59		 pop	 ecx
  0002e	a1 00 00 00 00	 mov	 eax, DWORD PTR ___security_cookie
  00033	33 c5		 xor	 eax, ebp
  00035	89 45 f0	 mov	 DWORD PTR __$ArrayPad$[ebp], eax
  00038	50		 push	 eax
  00039	8d 45 f4	 lea	 eax, DWORD PTR __$EHRec$[ebp]
  0003c	64 a3 00 00 00
	00		 mov	 DWORD PTR fs:0, eax
  00042	89 4d e8	 mov	 DWORD PTR _this$[ebp], ecx
  00045	c7 85 ec fe ff
	ff 00 00 00 00	 mov	 DWORD PTR $T2[ebp], 0
; Line 345
  0004f	8d 4d c4	 lea	 ecx, DWORD PTR __Str$[ebp]
  00052	e8 00 00 00 00	 call	 ??0?$basic_string@DU?$char_traits@D@std@@V?$allocator@D@2@@std@@QAE@XZ ; std::basic_string<char,std::char_traits<char>,std::allocator<char> >::basic_string<char,std::char_traits<char>,std::allocator<char> >
  00057	c7 45 fc 00 00
	00 00		 mov	 DWORD PTR __$EHRec$[ebp+8], 0
; Line 347
  0005e	6a 18		 push	 24			; 00000018H
  00060	8d 4d c4	 lea	 ecx, DWORD PTR __Str$[ebp]
  00063	e8 00 00 00 00	 call	 ?reserve@?$basic_string@DU?$char_traits@D@std@@V?$allocator@D@2@@std@@QAEXI@Z ; std::basic_string<char,std::char_traits<char>,std::allocator<char> >::reserve
; Line 349
  00068	c7 45 b8 18 00
	00 00		 mov	 DWORD PTR __Pos$[ebp], 24 ; 00000018H
$LN4@to_string:
  0006f	83 7d b8 00	 cmp	 DWORD PTR __Pos$[ebp], 0
  00073	76 3a		 jbe	 SHORT $LN3@to_string
; Line 350
  00075	8b 45 b8	 mov	 eax, DWORD PTR __Pos$[ebp]
  00078	83 e8 01	 sub	 eax, 1
  0007b	89 45 b8	 mov	 DWORD PTR __Pos$[ebp], eax
  0007e	8b 4d b8	 mov	 ecx, DWORD PTR __Pos$[ebp]
  00081	51		 push	 ecx
  00082	8b 4d e8	 mov	 ecx, DWORD PTR _this$[ebp]
  00085	e8 00 00 00 00	 call	 ?test@?$bitset@$0BI@@std@@QBE_NI@Z ; std::bitset<24>::test
  0008a	0f b6 d0	 movzx	 edx, al
  0008d	85 d2		 test	 edx, edx
  0008f	74 0f		 je	 SHORT $LN5@to_string
; Line 351
  00091	0f b6 45 10	 movzx	 eax, BYTE PTR __E1$[ebp]
  00095	50		 push	 eax
  00096	8d 4d c4	 lea	 ecx, DWORD PTR __Str$[ebp]
  00099	e8 00 00 00 00	 call	 ??Y?$basic_string@DU?$char_traits@D@std@@V?$allocator@D@2@@std@@QAEAAV01@D@Z ; std::basic_string<char,std::char_traits<char>,std::allocator<char> >::operator+=
; Line 352
  0009e	eb 0d		 jmp	 SHORT $LN6@to_string
$LN5@to_string:
; Line 353
  000a0	0f b6 45 0c	 movzx	 eax, BYTE PTR __E0$[ebp]
  000a4	50		 push	 eax
  000a5	8d 4d c4	 lea	 ecx, DWORD PTR __Str$[ebp]
  000a8	e8 00 00 00 00	 call	 ??Y?$basic_string@DU?$char_traits@D@std@@V?$allocator@D@2@@std@@QAEAAV01@D@Z ; std::basic_string<char,std::char_traits<char>,std::allocator<char> >::operator+=
$LN6@to_string:
  000ad	eb c0		 jmp	 SHORT $LN4@to_string
$LN3@to_string:
; Line 354
  000af	8d 45 c4	 lea	 eax, DWORD PTR __Str$[ebp]
  000b2	50		 push	 eax
  000b3	8b 4d 08	 mov	 ecx, DWORD PTR ___$ReturnUdt$[ebp]
  000b6	e8 00 00 00 00	 call	 ??0?$basic_string@DU?$char_traits@D@std@@V?$allocator@D@2@@std@@QAE@$$QAV01@@Z ; std::basic_string<char,std::char_traits<char>,std::allocator<char> >::basic_string<char,std::char_traits<char>,std::allocator<char> >
  000bb	8b 8d ec fe ff
	ff		 mov	 ecx, DWORD PTR $T2[ebp]
  000c1	83 c9 01	 or	 ecx, 1
  000c4	89 8d ec fe ff
	ff		 mov	 DWORD PTR $T2[ebp], ecx
  000ca	c7 45 fc ff ff
	ff ff		 mov	 DWORD PTR __$EHRec$[ebp+8], -1
  000d1	8d 4d c4	 lea	 ecx, DWORD PTR __Str$[ebp]
  000d4	e8 00 00 00 00	 call	 ??1?$basic_string@DU?$char_traits@D@std@@V?$allocator@D@2@@std@@QAE@XZ ; std::basic_string<char,std::char_traits<char>,std::allocator<char> >::~basic_string<char,std::char_traits<char>,std::allocator<char> >
  000d9	8b 45 08	 mov	 eax, DWORD PTR ___$ReturnUdt$[ebp]
; Line 355
  000dc	52		 push	 edx
  000dd	8b cd		 mov	 ecx, ebp
  000df	50		 push	 eax
  000e0	8d 15 00 00 00
	00		 lea	 edx, DWORD PTR $LN14@to_string
  000e6	e8 00 00 00 00	 call	 @_RTC_CheckStackVars@8
  000eb	58		 pop	 eax
  000ec	5a		 pop	 edx
  000ed	8b 4d f4	 mov	 ecx, DWORD PTR __$EHRec$[ebp]
  000f0	64 89 0d 00 00
	00 00		 mov	 DWORD PTR fs:0, ecx
  000f7	59		 pop	 ecx
  000f8	5f		 pop	 edi
  000f9	5e		 pop	 esi
  000fa	5b		 pop	 ebx
  000fb	8b 4d f0	 mov	 ecx, DWORD PTR __$ArrayPad$[ebp]
  000fe	33 cd		 xor	 ecx, ebp
  00100	e8 00 00 00 00	 call	 @__security_check_cookie@4
  00105	81 c4 18 01 00
	00		 add	 esp, 280		; 00000118H
  0010b	3b ec		 cmp	 ebp, esp
  0010d	e8 00 00 00 00	 call	 __RTC_CheckEsp
  00112	8b e5		 mov	 esp, ebp
  00114	5d		 pop	 ebp
  00115	c2 0c 00	 ret	 12			; 0000000cH
$LN14@to_string:
  00118	01 00 00 00	 DD	 1
  0011c	00 00 00 00	 DD	 $LN13@to_string
$LN13@to_string:
  00120	c4 ff ff ff	 DD	 -60			; ffffffc4H
  00124	1c 00 00 00	 DD	 28			; 0000001cH
  00128	00 00 00 00	 DD	 $LN11@to_string
$LN11@to_string:
  0012c	5f		 DB	 95			; 0000005fH
  0012d	53		 DB	 83			; 00000053H
  0012e	74		 DB	 116			; 00000074H
  0012f	72		 DB	 114			; 00000072H
  00130	00		 DB	 0
_TEXT	ENDS
;	COMDAT text$x
text$x	SEGMENT
__unwindfunclet$??$to_string@DU?$char_traits@D@std@@V?$allocator@D@2@@?$bitset@$0BI@@std@@QBE?AV?$basic_string@DU?$char_traits@D@std@@V?$allocator@D@2@@1@DD@Z$0:
  00000	8d 4d c4	 lea	 ecx, DWORD PTR __Str$[ebp]
  00003	e9 00 00 00 00	 jmp	 ??1?$basic_string@DU?$char_traits@D@std@@V?$allocator@D@2@@std@@QAE@XZ ; std::basic_string<char,std::char_traits<char>,std::allocator<char> >::~basic_string<char,std::char_traits<char>,std::allocator<char> >
__ehhandler$??$to_string@DU?$char_traits@D@std@@V?$allocator@D@2@@?$bitset@$0BI@@std@@QBE?AV?$basic_string@DU?$char_traits@D@std@@V?$allocator@D@2@@1@DD@Z:
  00008	8b 54 24 08	 mov	 edx, DWORD PTR [esp+8]
  0000c	8d 42 0c	 lea	 eax, DWORD PTR [edx+12]
  0000f	8b 8a e4 fe ff
	ff		 mov	 ecx, DWORD PTR [edx-284]
  00015	33 c8		 xor	 ecx, eax
  00017	e8 00 00 00 00	 call	 @__security_check_cookie@4
  0001c	8b 4a fc	 mov	 ecx, DWORD PTR [edx-4]
  0001f	33 c8		 xor	 ecx, eax
  00021	e8 00 00 00 00	 call	 @__security_check_cookie@4
  00026	b8 00 00 00 00	 mov	 eax, OFFSET __ehfuncinfo$??$to_string@DU?$char_traits@D@std@@V?$allocator@D@2@@?$bitset@$0BI@@std@@QBE?AV?$basic_string@DU?$char_traits@D@std@@V?$allocator@D@2@@1@DD@Z
  0002b	e9 00 00 00 00	 jmp	 ___CxxFrameHandler3
text$x	ENDS
??$to_string@DU?$char_traits@D@std@@V?$allocator@D@2@@?$bitset@$0BI@@std@@QBE?AV?$basic_string@DU?$char_traits@D@std@@V?$allocator@D@2@@1@DD@Z ENDP ; std::bitset<24>::to_string<char,std::char_traits<char>,std::allocator<char> >
; Function compile flags: /Odtp /RTCsu /ZI
;	COMDAT ?_Xran@?$bitset@$0BI@@std@@ABEXXZ
_TEXT	SEGMENT
_this$ = -8						; size = 4
?_Xran@?$bitset@$0BI@@std@@ABEXXZ PROC			; std::bitset<24>::_Xran, COMDAT
; _this$ = ecx
; File c:\program files (x86)\microsoft visual studio\2017\community\vc\tools\msvc\14.13.26128\include\bitset
; Line 484
  00000	55		 push	 ebp
  00001	8b ec		 mov	 ebp, esp
  00003	81 ec cc 00 00
	00		 sub	 esp, 204		; 000000ccH
  00009	53		 push	 ebx
  0000a	56		 push	 esi
  0000b	57		 push	 edi
  0000c	51		 push	 ecx
  0000d	8d bd 34 ff ff
	ff		 lea	 edi, DWORD PTR [ebp-204]
  00013	b9 33 00 00 00	 mov	 ecx, 51			; 00000033H
  00018	b8 cc cc cc cc	 mov	 eax, -858993460		; ccccccccH
  0001d	f3 ab		 rep stosd
  0001f	59		 pop	 ecx
  00020	89 4d f8	 mov	 DWORD PTR _this$[ebp], ecx
; Line 485
  00023	68 00 00 00 00	 push	 OFFSET ??_C@_0BL@HMFHJKFH@invalid?5bitset?$DMN?$DO?5position?$AA@
  00028	e8 00 00 00 00	 call	 ?_Xout_of_range@std@@YAXPBD@Z ; std::_Xout_of_range
$LN2@Xran:
; Line 486
  0002d	5f		 pop	 edi
  0002e	5e		 pop	 esi
  0002f	5b		 pop	 ebx
  00030	81 c4 cc 00 00
	00		 add	 esp, 204		; 000000ccH
  00036	3b ec		 cmp	 ebp, esp
  00038	e8 00 00 00 00	 call	 __RTC_CheckEsp
  0003d	8b e5		 mov	 esp, ebp
  0003f	5d		 pop	 ebp
  00040	c3		 ret	 0
?_Xran@?$bitset@$0BI@@std@@ABEXXZ ENDP			; std::bitset<24>::_Xran
_TEXT	ENDS
; Function compile flags: /Odtp /RTCsu /ZI
;	COMDAT ?test@?$bitset@$0BI@@std@@QBE_NI@Z
_TEXT	SEGMENT
_this$ = -8						; size = 4
__Pos$ = 8						; size = 4
?test@?$bitset@$0BI@@std@@QBE_NI@Z PROC			; std::bitset<24>::test, COMDAT
; _this$ = ecx
; File c:\program files (x86)\microsoft visual studio\2017\community\vc\tools\msvc\14.13.26128\include\bitset
; Line 403
  00000	55		 push	 ebp
  00001	8b ec		 mov	 ebp, esp
  00003	81 ec cc 00 00
	00		 sub	 esp, 204		; 000000ccH
  00009	53		 push	 ebx
  0000a	56		 push	 esi
  0000b	57		 push	 edi
  0000c	51		 push	 ecx
  0000d	8d bd 34 ff ff
	ff		 lea	 edi, DWORD PTR [ebp-204]
  00013	b9 33 00 00 00	 mov	 ecx, 51			; 00000033H
  00018	b8 cc cc cc cc	 mov	 eax, -858993460		; ccccccccH
  0001d	f3 ab		 rep stosd
  0001f	59		 pop	 ecx
  00020	89 4d f8	 mov	 DWORD PTR _this$[ebp], ecx
; Line 404
  00023	83 7d 08 18	 cmp	 DWORD PTR __Pos$[ebp], 24 ; 00000018H
  00027	72 08		 jb	 SHORT $LN2@test
; Line 405
  00029	8b 4d f8	 mov	 ecx, DWORD PTR _this$[ebp]
  0002c	e8 00 00 00 00	 call	 ?_Xran@?$bitset@$0BI@@std@@ABEXXZ ; std::bitset<24>::_Xran
$LN2@test:
; Line 406
  00031	8b 45 08	 mov	 eax, DWORD PTR __Pos$[ebp]
  00034	50		 push	 eax
  00035	8b 4d f8	 mov	 ecx, DWORD PTR _this$[ebp]
  00038	e8 00 00 00 00	 call	 ?_Subscript@?$bitset@$0BI@@std@@QBE_NI@Z ; std::bitset<24>::_Subscript
$LN3@test:
; Line 407
  0003d	5f		 pop	 edi
  0003e	5e		 pop	 esi
  0003f	5b		 pop	 ebx
  00040	81 c4 cc 00 00
	00		 add	 esp, 204		; 000000ccH
  00046	3b ec		 cmp	 ebp, esp
  00048	e8 00 00 00 00	 call	 __RTC_CheckEsp
  0004d	8b e5		 mov	 esp, ebp
  0004f	5d		 pop	 ebp
  00050	c2 04 00	 ret	 4
?test@?$bitset@$0BI@@std@@QBE_NI@Z ENDP			; std::bitset<24>::test
_TEXT	ENDS
; Function compile flags: /Odtp /RTCsu /ZI
;	COMDAT ??0?$bitset@$0BI@@std@@QAE@_K@Z
_TEXT	SEGMENT
tv67 = -212						; size = 8
_this$ = -8						; size = 4
__Val$ = 8						; size = 8
??0?$bitset@$0BI@@std@@QAE@_K@Z PROC			; std::bitset<24>::bitset<24>, COMDAT
; _this$ = ecx
; File c:\program files (x86)\microsoft visual studio\2017\community\vc\tools\msvc\14.13.26128\include\bitset
; Line 138
  00000	55		 push	 ebp
  00001	8b ec		 mov	 ebp, esp
  00003	81 ec d4 00 00
	00		 sub	 esp, 212		; 000000d4H
  00009	53		 push	 ebx
  0000a	56		 push	 esi
  0000b	57		 push	 edi
  0000c	51		 push	 ecx
  0000d	8d bd 2c ff ff
	ff		 lea	 edi, DWORD PTR [ebp-212]
  00013	b9 35 00 00 00	 mov	 ecx, 53			; 00000035H
  00018	b8 cc cc cc cc	 mov	 eax, -858993460		; ccccccccH
  0001d	f3 ab		 rep stosd
  0001f	59		 pop	 ecx
  00020	89 4d f8	 mov	 DWORD PTR _this$[ebp], ecx
; Line 137
  00023	b8 01 00 00 00	 mov	 eax, 1
  00028	85 c0		 test	 eax, eax
  0002a	74 1d		 je	 SHORT $LN3@bitset
  0002c	8b 4d 08	 mov	 ecx, DWORD PTR __Val$[ebp]
  0002f	81 e1 ff ff ff
	00		 and	 ecx, 16777215		; 00ffffffH
  00035	8b 55 0c	 mov	 edx, DWORD PTR __Val$[ebp+4]
  00038	83 e2 00	 and	 edx, 0
  0003b	89 8d 2c ff ff
	ff		 mov	 DWORD PTR tv67[ebp], ecx
  00041	89 95 30 ff ff
	ff		 mov	 DWORD PTR tv67[ebp+4], edx
  00047	eb 12		 jmp	 SHORT $LN4@bitset
$LN3@bitset:
  00049	8b 45 08	 mov	 eax, DWORD PTR __Val$[ebp]
  0004c	89 85 2c ff ff
	ff		 mov	 DWORD PTR tv67[ebp], eax
  00052	8b 4d 0c	 mov	 ecx, DWORD PTR __Val$[ebp+4]
  00055	89 8d 30 ff ff
	ff		 mov	 DWORD PTR tv67[ebp+4], ecx
$LN4@bitset:
  0005b	8b 95 2c ff ff
	ff		 mov	 edx, DWORD PTR tv67[ebp]
  00061	8b 45 f8	 mov	 eax, DWORD PTR _this$[ebp]
  00064	89 10		 mov	 DWORD PTR [eax], edx
; Line 139
  00066	8b 45 f8	 mov	 eax, DWORD PTR _this$[ebp]
  00069	5f		 pop	 edi
  0006a	5e		 pop	 esi
  0006b	5b		 pop	 ebx
  0006c	8b e5		 mov	 esp, ebp
  0006e	5d		 pop	 ebp
  0006f	c2 08 00	 ret	 8
??0?$bitset@$0BI@@std@@QAE@_K@Z ENDP			; std::bitset<24>::bitset<24>
_TEXT	ENDS
; Function compile flags: /Odtp /RTCsu /ZI
;	COMDAT ?_Subscript@?$bitset@$0BI@@std@@QBE_NI@Z
_TEXT	SEGMENT
tv72 = -208						; size = 4
_this$ = -8						; size = 4
__Pos$ = 8						; size = 4
?_Subscript@?$bitset@$0BI@@std@@QBE_NI@Z PROC		; std::bitset<24>::_Subscript, COMDAT
; _this$ = ecx
; File c:\program files (x86)\microsoft visual studio\2017\community\vc\tools\msvc\14.13.26128\include\bitset
; Line 102
  00000	55		 push	 ebp
  00001	8b ec		 mov	 ebp, esp
  00003	81 ec d0 00 00
	00		 sub	 esp, 208		; 000000d0H
  00009	53		 push	 ebx
  0000a	56		 push	 esi
  0000b	57		 push	 edi
  0000c	51		 push	 ecx
  0000d	8d bd 30 ff ff
	ff		 lea	 edi, DWORD PTR [ebp-208]
  00013	b9 34 00 00 00	 mov	 ecx, 52			; 00000034H
  00018	b8 cc cc cc cc	 mov	 eax, -858993460		; ccccccccH
  0001d	f3 ab		 rep stosd
  0001f	59		 pop	 ecx
  00020	89 4d f8	 mov	 DWORD PTR _this$[ebp], ecx
; Line 103
  00023	8b 75 08	 mov	 esi, DWORD PTR __Pos$[ebp]
  00026	c1 ee 05	 shr	 esi, 5
  00029	8b 45 08	 mov	 eax, DWORD PTR __Pos$[ebp]
  0002c	33 d2		 xor	 edx, edx
  0002e	b9 20 00 00 00	 mov	 ecx, 32			; 00000020H
  00033	f7 f1		 div	 ecx
  00035	b8 01 00 00 00	 mov	 eax, 1
  0003a	8b ca		 mov	 ecx, edx
  0003c	d3 e0		 shl	 eax, cl
  0003e	8b 4d f8	 mov	 ecx, DWORD PTR _this$[ebp]
  00041	23 04 b1	 and	 eax, DWORD PTR [ecx+esi*4]
  00044	74 0c		 je	 SHORT $LN3@Subscript
  00046	c7 85 30 ff ff
	ff 01 00 00 00	 mov	 DWORD PTR tv72[ebp], 1
  00050	eb 0a		 jmp	 SHORT $LN4@Subscript
$LN3@Subscript:
  00052	c7 85 30 ff ff
	ff 00 00 00 00	 mov	 DWORD PTR tv72[ebp], 0
$LN4@Subscript:
  0005c	8a 85 30 ff ff
	ff		 mov	 al, BYTE PTR tv72[ebp]
; Line 105
  00062	5f		 pop	 edi
  00063	5e		 pop	 esi
  00064	5b		 pop	 ebx
  00065	8b e5		 mov	 esp, ebp
  00067	5d		 pop	 ebp
  00068	c2 04 00	 ret	 4
?_Subscript@?$bitset@$0BI@@std@@QBE_NI@Z ENDP		; std::bitset<24>::_Subscript
_TEXT	ENDS
; Function compile flags: /Odtp /RTCsu /ZI
;	COMDAT _main
_TEXT	SEGMENT
tv196 = -460						; size = 4
tv198 = -456						; size = 4
tv194 = -452						; size = 4
tv197 = -448						; size = 4
$T2 = -440						; size = 28
$T3 = -404						; size = 4
$T4 = -392						; size = 28
$T5 = -356						; size = 4
_use$ = -152						; size = 8
_start$ = -136						; size = 8
__Ptr$6 = -120						; size = 4
_i$7 = -108						; size = 4
_maxdig$ = -96						; size = 4
_nowdig$ = -84						; size = 4
_digs$ = -72						; size = 4
_dec1$ = -60						; size = 4
_dec0$ = -48						; size = 4
_bin1$ = -36						; size = 4
_bin0$ = -24						; size = 4
__$ArrayPad$ = -16					; size = 4
__$EHRec$ = -12						; size = 12
_main	PROC						; COMDAT
; File d:\project\c++\snake\snake\snake.cpp
; Line 33
  00000	55		 push	 ebp
  00001	8b ec		 mov	 ebp, esp
  00003	6a ff		 push	 -1
  00005	68 00 00 00 00	 push	 __ehhandler$_main
  0000a	64 a1 00 00 00
	00		 mov	 eax, DWORD PTR fs:0
  00010	50		 push	 eax
  00011	81 ec c0 01 00
	00		 sub	 esp, 448		; 000001c0H
  00017	53		 push	 ebx
  00018	56		 push	 esi
  00019	57		 push	 edi
  0001a	8d bd 34 fe ff
	ff		 lea	 edi, DWORD PTR [ebp-460]
  00020	b9 70 00 00 00	 mov	 ecx, 112		; 00000070H
  00025	b8 cc cc cc cc	 mov	 eax, -858993460		; ccccccccH
  0002a	f3 ab		 rep stosd
  0002c	a1 00 00 00 00	 mov	 eax, DWORD PTR ___security_cookie
  00031	33 c5		 xor	 eax, ebp
  00033	89 45 f0	 mov	 DWORD PTR __$ArrayPad$[ebp], eax
  00036	50		 push	 eax
  00037	8d 45 f4	 lea	 eax, DWORD PTR __$EHRec$[ebp]
  0003a	64 a3 00 00 00
	00		 mov	 DWORD PTR fs:0, eax
; Line 34
  00040	c7 45 e8 00 00
	00 00		 mov	 DWORD PTR _bin0$[ebp], 0
  00047	c7 45 dc 00 00
	00 00		 mov	 DWORD PTR _bin1$[ebp], 0
; Line 35
  0004e	c7 45 d0 00 00
	00 00		 mov	 DWORD PTR _dec0$[ebp], 0
  00055	c7 45 c4 00 00
	00 00		 mov	 DWORD PTR _dec1$[ebp], 0
; Line 36
  0005c	c7 45 b8 00 00
	00 00		 mov	 DWORD PTR _digs$[ebp], 0
  00063	c7 45 ac 00 00
	00 00		 mov	 DWORD PTR _nowdig$[ebp], 0
  0006a	c7 45 a0 00 00
	00 00		 mov	 DWORD PTR _maxdig$[ebp], 0
; Line 48
  00071	c7 45 94 00 00
	00 00		 mov	 DWORD PTR _i$7[ebp], 0
  00078	eb 09		 jmp	 SHORT $LN4@main
$LN2@main:
  0007a	8b 45 94	 mov	 eax, DWORD PTR _i$7[ebp]
  0007d	83 c0 01	 add	 eax, 1
  00080	89 45 94	 mov	 DWORD PTR _i$7[ebp], eax
$LN4@main:
  00083	81 7d 94 00 00
	00 01		 cmp	 DWORD PTR _i$7[ebp], 16777216 ; 01000000H
  0008a	7d 5e		 jge	 SHORT $LN3@main
; Line 49
  0008c	8d 45 94	 lea	 eax, DWORD PTR _i$7[ebp]
  0008f	89 45 88	 mov	 DWORD PTR __Ptr$6[ebp], eax
; Line 50
  00092	b8 01 00 00 00	 mov	 eax, 1
  00097	6b c8 00	 imul	 ecx, eax, 0
  0009a	8b 55 88	 mov	 edx, DWORD PTR __Ptr$6[ebp]
  0009d	0f b6 04 0a	 movzx	 eax, BYTE PTR [edx+ecx]
  000a1	8b 0d 00 00 00
	00		 mov	 ecx, DWORD PTR ?_Bitsperbyte@@3QBDB
  000a7	0f be 14 01	 movsx	 edx, BYTE PTR [ecx+eax]
  000ab	b8 01 00 00 00	 mov	 eax, 1
  000b0	c1 e0 00	 shl	 eax, 0
  000b3	8b 4d 88	 mov	 ecx, DWORD PTR __Ptr$6[ebp]
  000b6	0f b6 04 01	 movzx	 eax, BYTE PTR [ecx+eax]
  000ba	8b 0d 00 00 00
	00		 mov	 ecx, DWORD PTR ?_Bitsperbyte@@3QBDB
  000c0	0f be 04 01	 movsx	 eax, BYTE PTR [ecx+eax]
  000c4	03 d0		 add	 edx, eax
  000c6	b9 01 00 00 00	 mov	 ecx, 1
  000cb	d1 e1		 shl	 ecx, 1
  000cd	8b 45 88	 mov	 eax, DWORD PTR __Ptr$6[ebp]
  000d0	0f b6 0c 08	 movzx	 ecx, BYTE PTR [eax+ecx]
  000d4	a1 00 00 00 00	 mov	 eax, DWORD PTR ?_Bitsperbyte@@3QBDB
  000d9	0f be 0c 08	 movsx	 ecx, BYTE PTR [eax+ecx]
  000dd	03 d1		 add	 edx, ecx
  000df	8b 45 94	 mov	 eax, DWORD PTR _i$7[ebp]
  000e2	88 90 00 00 00
	00		 mov	 BYTE PTR ?c@@3PADA[eax], dl
; Line 51
  000e8	eb 90		 jmp	 SHORT $LN2@main
$LN3@main:
; Line 52
  000ea	8b f4		 mov	 esi, esp
  000ec	ff 15 00 00 00
	00		 call	 DWORD PTR __imp__clock
  000f2	3b f4		 cmp	 esi, esp
  000f4	e8 00 00 00 00	 call	 __RTC_CheckEsp
  000f9	99		 cdq
  000fa	89 85 78 ff ff
	ff		 mov	 DWORD PTR _start$[ebp], eax
  00100	89 95 7c ff ff
	ff		 mov	 DWORD PTR _start$[ebp+4], edx
  00106	6a 00		 push	 0
  00108	e8 00 00 00 00	 call	 _time
  0010d	83 c4 04	 add	 esp, 4
  00110	89 85 68 ff ff
	ff		 mov	 DWORD PTR _use$[ebp], eax
  00116	89 95 6c ff ff
	ff		 mov	 DWORD PTR _use$[ebp+4], edx
$LN5@main:
; Line 53
  0011c	b8 01 00 00 00	 mov	 eax, 1
  00121	85 c0		 test	 eax, eax
  00123	0f 84 e2 01 00
	00		 je	 $LN6@main
; Line 54
  00129	8b 45 e8	 mov	 eax, DWORD PTR _bin0$[ebp]
  0012c	83 c0 01	 add	 eax, 1
  0012f	89 45 e8	 mov	 DWORD PTR _bin0$[ebp], eax
; Line 55
  00132	81 7d e8 00 00
	00 01		 cmp	 DWORD PTR _bin0$[ebp], 16777216 ; 01000000H
  00139	75 1d		 jne	 SHORT $LN7@main
; Line 56
  0013b	c7 45 e8 00 00
	00 00		 mov	 DWORD PTR _bin0$[ebp], 0
; Line 57
  00142	8b 45 dc	 mov	 eax, DWORD PTR _bin1$[ebp]
  00145	83 c0 01	 add	 eax, 1
  00148	89 45 dc	 mov	 DWORD PTR _bin1$[ebp], eax
; Line 58
  0014b	8b 45 dc	 mov	 eax, DWORD PTR _bin1$[ebp]
  0014e	0f be 88 00 00
	00 00		 movsx	 ecx, BYTE PTR ?c@@3PADA[eax]
  00155	89 4d b8	 mov	 DWORD PTR _digs$[ebp], ecx
$LN7@main:
; Line 60
  00158	8b 45 e8	 mov	 eax, DWORD PTR _bin0$[ebp]
  0015b	0f be 88 00 00
	00 00		 movsx	 ecx, BYTE PTR ?c@@3PADA[eax]
  00162	03 4d b8	 add	 ecx, DWORD PTR _digs$[ebp]
  00165	89 4d ac	 mov	 DWORD PTR _nowdig$[ebp], ecx
; Line 61
  00168	8b 45 ac	 mov	 eax, DWORD PTR _nowdig$[ebp]
  0016b	3b 45 a0	 cmp	 eax, DWORD PTR _maxdig$[ebp]
  0016e	0f 8e 92 01 00
	00		 jle	 $LN8@main
; Line 62
  00174	8b 45 ac	 mov	 eax, DWORD PTR _nowdig$[ebp]
  00177	89 45 a0	 mov	 DWORD PTR _maxdig$[ebp], eax
; Line 63
  0017a	8b f4		 mov	 esi, esp
  0017c	ff 15 00 00 00
	00		 call	 DWORD PTR __imp__clock
  00182	3b f4		 cmp	 esi, esp
  00184	e8 00 00 00 00	 call	 __RTC_CheckEsp
  00189	99		 cdq
  0018a	2b 85 78 ff ff
	ff		 sub	 eax, DWORD PTR _start$[ebp]
  00190	1b 95 7c ff ff
	ff		 sbb	 edx, DWORD PTR _start$[ebp+4]
  00196	89 85 68 ff ff
	ff		 mov	 DWORD PTR _use$[ebp], eax
  0019c	89 95 6c ff ff
	ff		 mov	 DWORD PTR _use$[ebp+4], edx
; Line 64
  001a2	8b 45 a0	 mov	 eax, DWORD PTR _maxdig$[ebp]
  001a5	50		 push	 eax
  001a6	8b 45 dc	 mov	 eax, DWORD PTR _bin1$[ebp]
  001a9	99		 cdq
  001aa	6a 00		 push	 0
  001ac	68 00 00 00 01	 push	 16777216		; 01000000H
  001b1	52		 push	 edx
  001b2	50		 push	 eax
  001b3	e8 00 00 00 00	 call	 __allmul
  001b8	8b c8		 mov	 ecx, eax
  001ba	8b f2		 mov	 esi, edx
  001bc	8b 45 e8	 mov	 eax, DWORD PTR _bin0$[ebp]
  001bf	99		 cdq
  001c0	03 c8		 add	 ecx, eax
  001c2	13 f2		 adc	 esi, edx
  001c4	56		 push	 esi
  001c5	51		 push	 ecx
  001c6	68 00 00 00 00	 push	 OFFSET ??_C@_0BB@CNIPENPK@?$CF16lld?$KG?$LD?$CF3d?$KN?S?81?8?$AA@
  001cb	e8 00 00 00 00	 call	 _printf
  001d0	83 c4 10	 add	 esp, 16			; 00000010H
; Line 65
  001d3	8b 85 68 ff ff
	ff		 mov	 eax, DWORD PTR _use$[ebp]
  001d9	99		 cdq
  001da	b9 e8 03 00 00	 mov	 ecx, 1000		; 000003e8H
  001df	f7 f9		 idiv	 ecx
  001e1	52		 push	 edx
  001e2	6a 00		 push	 0
  001e4	68 e8 03 00 00	 push	 1000			; 000003e8H
  001e9	8b 95 6c ff ff
	ff		 mov	 edx, DWORD PTR _use$[ebp+4]
  001ef	52		 push	 edx
  001f0	8b 85 68 ff ff
	ff		 mov	 eax, DWORD PTR _use$[ebp]
  001f6	50		 push	 eax
  001f7	e8 00 00 00 00	 call	 __alldiv
  001fc	99		 cdq
  001fd	b9 3c 00 00 00	 mov	 ecx, 60			; 0000003cH
  00202	f7 f9		 idiv	 ecx
  00204	52		 push	 edx
  00205	6a 00		 push	 0
  00207	68 60 ea 00 00	 push	 60000			; 0000ea60H
  0020c	8b 95 6c ff ff
	ff		 mov	 edx, DWORD PTR _use$[ebp+4]
  00212	52		 push	 edx
  00213	8b 85 68 ff ff
	ff		 mov	 eax, DWORD PTR _use$[ebp]
  00219	50		 push	 eax
  0021a	e8 00 00 00 00	 call	 __alldiv
  0021f	50		 push	 eax
  00220	68 00 00 00 00	 push	 OFFSET ??_C@_0BF@PNGEBNIG@?$KK?a?$KEF?$CF3d?$KE?$MA?$CF3d?4?$CF03d?$KM?m?5?$AA@
  00225	e8 00 00 00 00	 call	 _printf
  0022a	83 c4 10	 add	 esp, 16			; 00000010H
; Line 66
  0022d	6a 0a		 push	 10			; 0000000aH
  0022f	6a 31		 push	 49			; 00000031H
  00231	6a 30		 push	 48			; 00000030H
  00233	8d 85 78 fe ff
	ff		 lea	 eax, DWORD PTR $T4[ebp]
  00239	50		 push	 eax
  0023a	8b 45 e8	 mov	 eax, DWORD PTR _bin0$[ebp]
  0023d	99		 cdq
  0023e	52		 push	 edx
  0023f	50		 push	 eax
  00240	8d 8d 9c fe ff
	ff		 lea	 ecx, DWORD PTR $T5[ebp]
  00246	e8 00 00 00 00	 call	 ??0?$bitset@$0BI@@std@@QAE@_K@Z ; std::bitset<24>::bitset<24>
  0024b	8b c8		 mov	 ecx, eax
  0024d	e8 00 00 00 00	 call	 ??$to_string@DU?$char_traits@D@std@@V?$allocator@D@2@@?$bitset@$0BI@@std@@QBE?AV?$basic_string@DU?$char_traits@D@std@@V?$allocator@D@2@@1@DD@Z ; std::bitset<24>::to_string<char,std::char_traits<char>,std::allocator<char> >
  00252	89 85 40 fe ff
	ff		 mov	 DWORD PTR tv197[ebp], eax
  00258	8b 8d 40 fe ff
	ff		 mov	 ecx, DWORD PTR tv197[ebp]
  0025e	89 8d 3c fe ff
	ff		 mov	 DWORD PTR tv194[ebp], ecx
  00264	c7 45 fc 00 00
	00 00		 mov	 DWORD PTR __$EHRec$[ebp+8], 0
  0026b	8b 95 3c fe ff
	ff		 mov	 edx, DWORD PTR tv194[ebp]
  00271	52		 push	 edx
  00272	6a 20		 push	 32			; 00000020H
  00274	6a 31		 push	 49			; 00000031H
  00276	6a 30		 push	 48			; 00000030H
  00278	8d 85 48 fe ff
	ff		 lea	 eax, DWORD PTR $T2[ebp]
  0027e	50		 push	 eax
  0027f	8b 45 dc	 mov	 eax, DWORD PTR _bin1$[ebp]
  00282	99		 cdq
  00283	52		 push	 edx
  00284	50		 push	 eax
  00285	8d 8d 6c fe ff
	ff		 lea	 ecx, DWORD PTR $T3[ebp]
  0028b	e8 00 00 00 00	 call	 ??0?$bitset@$0BI@@std@@QAE@_K@Z ; std::bitset<24>::bitset<24>
  00290	8b c8		 mov	 ecx, eax
  00292	e8 00 00 00 00	 call	 ??$to_string@DU?$char_traits@D@std@@V?$allocator@D@2@@?$bitset@$0BI@@std@@QBE?AV?$basic_string@DU?$char_traits@D@std@@V?$allocator@D@2@@1@DD@Z ; std::bitset<24>::to_string<char,std::char_traits<char>,std::allocator<char> >
  00297	89 85 38 fe ff
	ff		 mov	 DWORD PTR tv198[ebp], eax
  0029d	8b 8d 38 fe ff
	ff		 mov	 ecx, DWORD PTR tv198[ebp]
  002a3	89 8d 34 fe ff
	ff		 mov	 DWORD PTR tv196[ebp], ecx
  002a9	c6 45 fc 01	 mov	 BYTE PTR __$EHRec$[ebp+8], 1
  002ad	8b 95 34 fe ff
	ff		 mov	 edx, DWORD PTR tv196[ebp]
  002b3	52		 push	 edx
  002b4	a1 00 00 00 00	 mov	 eax, DWORD PTR __imp_?cout@std@@3V?$basic_ostream@DU?$char_traits@D@std@@@1@A
  002b9	50		 push	 eax
  002ba	e8 00 00 00 00	 call	 ??$?6DU?$char_traits@D@std@@V?$allocator@D@1@@std@@YAAAV?$basic_ostream@DU?$char_traits@D@std@@@0@AAV10@ABV?$basic_string@DU?$char_traits@D@std@@V?$allocator@D@2@@0@@Z ; std::operator<<<char,std::char_traits<char>,std::allocator<char> >
  002bf	83 c4 08	 add	 esp, 8
  002c2	50		 push	 eax
  002c3	e8 00 00 00 00	 call	 ??$?6U?$char_traits@D@std@@@std@@YAAAV?$basic_ostream@DU?$char_traits@D@std@@@0@AAV10@D@Z ; std::operator<<<std::char_traits<char> >
  002c8	83 c4 08	 add	 esp, 8
  002cb	50		 push	 eax
  002cc	e8 00 00 00 00	 call	 ??$?6DU?$char_traits@D@std@@V?$allocator@D@1@@std@@YAAAV?$basic_ostream@DU?$char_traits@D@std@@@0@AAV10@ABV?$basic_string@DU?$char_traits@D@std@@V?$allocator@D@2@@0@@Z ; std::operator<<<char,std::char_traits<char>,std::allocator<char> >
  002d1	83 c4 08	 add	 esp, 8
  002d4	50		 push	 eax
  002d5	e8 00 00 00 00	 call	 ??$?6U?$char_traits@D@std@@@std@@YAAAV?$basic_ostream@DU?$char_traits@D@std@@@0@AAV10@D@Z ; std::operator<<<std::char_traits<char> >
  002da	83 c4 08	 add	 esp, 8
  002dd	c6 45 fc 00	 mov	 BYTE PTR __$EHRec$[ebp+8], 0
  002e1	8d 8d 48 fe ff
	ff		 lea	 ecx, DWORD PTR $T2[ebp]
  002e7	e8 00 00 00 00	 call	 ??1?$basic_string@DU?$char_traits@D@std@@V?$allocator@D@2@@std@@QAE@XZ ; std::basic_string<char,std::char_traits<char>,std::allocator<char> >::~basic_string<char,std::char_traits<char>,std::allocator<char> >
  002ec	c7 45 fc ff ff
	ff ff		 mov	 DWORD PTR __$EHRec$[ebp+8], -1
  002f3	8d 8d 78 fe ff
	ff		 lea	 ecx, DWORD PTR $T4[ebp]
  002f9	e8 00 00 00 00	 call	 ??1?$basic_string@DU?$char_traits@D@std@@V?$allocator@D@2@@std@@QAE@XZ ; std::basic_string<char,std::char_traits<char>,std::allocator<char> >::~basic_string<char,std::char_traits<char>,std::allocator<char> >
; Line 67
  002fe	83 7d ac 32	 cmp	 DWORD PTR _nowdig$[ebp], 50 ; 00000032H
  00302	75 02		 jne	 SHORT $LN8@main
; Line 68
  00304	eb 05		 jmp	 SHORT $LN6@main
$LN8@main:
; Line 70
  00306	e9 11 fe ff ff	 jmp	 $LN5@main
$LN6@main:
; Line 71
  0030b	8b f4		 mov	 esi, esp
  0030d	68 00 00 00 00	 push	 OFFSET ??_C@_05PDJBBECF@pause?$AA@
  00312	ff 15 00 00 00
	00		 call	 DWORD PTR __imp__system
  00318	83 c4 04	 add	 esp, 4
  0031b	3b f4		 cmp	 esi, esp
  0031d	e8 00 00 00 00	 call	 __RTC_CheckEsp
; Line 72
  00322	33 c0		 xor	 eax, eax
; Line 73
  00324	52		 push	 edx
  00325	8b cd		 mov	 ecx, ebp
  00327	50		 push	 eax
  00328	8d 15 00 00 00
	00		 lea	 edx, DWORD PTR $LN16@main
  0032e	e8 00 00 00 00	 call	 @_RTC_CheckStackVars@8
  00333	58		 pop	 eax
  00334	5a		 pop	 edx
  00335	8b 4d f4	 mov	 ecx, DWORD PTR __$EHRec$[ebp]
  00338	64 89 0d 00 00
	00 00		 mov	 DWORD PTR fs:0, ecx
  0033f	59		 pop	 ecx
  00340	5f		 pop	 edi
  00341	5e		 pop	 esi
  00342	5b		 pop	 ebx
  00343	8b 4d f0	 mov	 ecx, DWORD PTR __$ArrayPad$[ebp]
  00346	33 cd		 xor	 ecx, ebp
  00348	e8 00 00 00 00	 call	 @__security_check_cookie@4
  0034d	81 c4 cc 01 00
	00		 add	 esp, 460		; 000001ccH
  00353	3b ec		 cmp	 ebp, esp
  00355	e8 00 00 00 00	 call	 __RTC_CheckEsp
  0035a	8b e5		 mov	 esp, ebp
  0035c	5d		 pop	 ebp
  0035d	c3		 ret	 0
  0035e	66 90		 npad	 2
$LN16@main:
  00360	01 00 00 00	 DD	 1
  00364	00 00 00 00	 DD	 $LN15@main
$LN15@main:
  00368	94 ff ff ff	 DD	 -108			; ffffff94H
  0036c	04 00 00 00	 DD	 4
  00370	00 00 00 00	 DD	 $LN13@main
$LN13@main:
  00374	69		 DB	 105			; 00000069H
  00375	00		 DB	 0
_TEXT	ENDS
;	COMDAT text$x
text$x	SEGMENT
__unwindfunclet$_main$0:
  00000	8d 8d 78 fe ff
	ff		 lea	 ecx, DWORD PTR $T4[ebp]
  00006	e9 00 00 00 00	 jmp	 ??1?$basic_string@DU?$char_traits@D@std@@V?$allocator@D@2@@std@@QAE@XZ ; std::basic_string<char,std::char_traits<char>,std::allocator<char> >::~basic_string<char,std::char_traits<char>,std::allocator<char> >
__unwindfunclet$_main$1:
  0000b	8d 8d 48 fe ff
	ff		 lea	 ecx, DWORD PTR $T2[ebp]
  00011	e9 00 00 00 00	 jmp	 ??1?$basic_string@DU?$char_traits@D@std@@V?$allocator@D@2@@std@@QAE@XZ ; std::basic_string<char,std::char_traits<char>,std::allocator<char> >::~basic_string<char,std::char_traits<char>,std::allocator<char> >
__ehhandler$_main:
  00016	8b 54 24 08	 mov	 edx, DWORD PTR [esp+8]
  0001a	8d 42 0c	 lea	 eax, DWORD PTR [edx+12]
  0001d	8b 8a 30 fe ff
	ff		 mov	 ecx, DWORD PTR [edx-464]
  00023	33 c8		 xor	 ecx, eax
  00025	e8 00 00 00 00	 call	 @__security_check_cookie@4
  0002a	8b 4a fc	 mov	 ecx, DWORD PTR [edx-4]
  0002d	33 c8		 xor	 ecx, eax
  0002f	e8 00 00 00 00	 call	 @__security_check_cookie@4
  00034	b8 00 00 00 00	 mov	 eax, OFFSET __ehfuncinfo$_main
  00039	e9 00 00 00 00	 jmp	 ___CxxFrameHandler3
text$x	ENDS
_main	ENDP
; Function compile flags: /Odtp /RTCsu /ZI
;	COMDAT _time
_TEXT	SEGMENT
__Time$ = 8						; size = 4
_time	PROC						; COMDAT
; File c:\program files (x86)\windows kits\10\include\10.0.16299.0\ucrt\time.h
; Line 534
  00000	55		 push	 ebp
  00001	8b ec		 mov	 ebp, esp
  00003	81 ec c0 00 00
	00		 sub	 esp, 192		; 000000c0H
  00009	53		 push	 ebx
  0000a	56		 push	 esi
  0000b	57		 push	 edi
  0000c	8d bd 40 ff ff
	ff		 lea	 edi, DWORD PTR [ebp-192]
  00012	b9 30 00 00 00	 mov	 ecx, 48			; 00000030H
  00017	b8 cc cc cc cc	 mov	 eax, -858993460		; ccccccccH
  0001c	f3 ab		 rep stosd
; Line 535
  0001e	8b f4		 mov	 esi, esp
  00020	8b 45 08	 mov	 eax, DWORD PTR __Time$[ebp]
  00023	50		 push	 eax
  00024	ff 15 00 00 00
	00		 call	 DWORD PTR __imp___time64
  0002a	83 c4 04	 add	 esp, 4
  0002d	3b f4		 cmp	 esi, esp
  0002f	e8 00 00 00 00	 call	 __RTC_CheckEsp
; Line 536
  00034	5f		 pop	 edi
  00035	5e		 pop	 esi
  00036	5b		 pop	 ebx
  00037	81 c4 c0 00 00
	00		 add	 esp, 192		; 000000c0H
  0003d	3b ec		 cmp	 ebp, esp
  0003f	e8 00 00 00 00	 call	 __RTC_CheckEsp
  00044	8b e5		 mov	 esp, ebp
  00046	5d		 pop	 ebp
  00047	c3		 ret	 0
_time	ENDP
_TEXT	ENDS
; Function compile flags: /Odtp /RTCsu /ZI
;	COMDAT ?_Xlen@?$basic_string@DU?$char_traits@D@std@@V?$allocator@D@2@@std@@SAXXZ
_TEXT	SEGMENT
?_Xlen@?$basic_string@DU?$char_traits@D@std@@V?$allocator@D@2@@std@@SAXXZ PROC ; std::basic_string<char,std::char_traits<char>,std::allocator<char> >::_Xlen, COMDAT
; File c:\program files (x86)\microsoft visual studio\2017\community\vc\tools\msvc\14.13.26128\include\xstring
; Line 3918
  00000	55		 push	 ebp
  00001	8b ec		 mov	 ebp, esp
  00003	81 ec c0 00 00
	00		 sub	 esp, 192		; 000000c0H
  00009	53		 push	 ebx
  0000a	56		 push	 esi
  0000b	57		 push	 edi
  0000c	8d bd 40 ff ff
	ff		 lea	 edi, DWORD PTR [ebp-192]
  00012	b9 30 00 00 00	 mov	 ecx, 48			; 00000030H
  00017	b8 cc cc cc cc	 mov	 eax, -858993460		; ccccccccH
  0001c	f3 ab		 rep stosd
; Line 3919
  0001e	68 00 00 00 00	 push	 OFFSET ??_C@_0BA@JFNIOLAK@string?5too?5long?$AA@
  00023	e8 00 00 00 00	 call	 ?_Xlength_error@std@@YAXPBD@Z ; std::_Xlength_error
$LN2@Xlen:
; Line 3920
  00028	5f		 pop	 edi
  00029	5e		 pop	 esi
  0002a	5b		 pop	 ebx
  0002b	81 c4 c0 00 00
	00		 add	 esp, 192		; 000000c0H
  00031	3b ec		 cmp	 ebp, esp
  00033	e8 00 00 00 00	 call	 __RTC_CheckEsp
  00038	8b e5		 mov	 esp, ebp
  0003a	5d		 pop	 ebp
  0003b	c3		 ret	 0
?_Xlen@?$basic_string@DU?$char_traits@D@std@@V?$allocator@D@2@@std@@SAXXZ ENDP ; std::basic_string<char,std::char_traits<char>,std::allocator<char> >::_Xlen
_TEXT	ENDS
; Function compile flags: /Odtp /RTCsu /ZI
;	COMDAT ?_Tidy_deallocate@?$basic_string@DU?$char_traits@D@std@@V?$allocator@D@2@@std@@QAEXXZ
_TEXT	SEGMENT
$T1 = -245						; size = 1
__Al$2 = -44						; size = 4
__Ptr$3 = -32						; size = 4
__My_data$ = -20					; size = 4
_this$ = -8						; size = 4
?_Tidy_deallocate@?$basic_string@DU?$char_traits@D@std@@V?$allocator@D@2@@std@@QAEXXZ PROC ; std::basic_string<char,std::char_traits<char>,std::allocator<char> >::_Tidy_deallocate, COMDAT
; _this$ = ecx
; File c:\program files (x86)\microsoft visual studio\2017\community\vc\tools\msvc\14.13.26128\include\xstring
; Line 3899
  00000	55		 push	 ebp
  00001	8b ec		 mov	 ebp, esp
  00003	81 ec fc 00 00
	00		 sub	 esp, 252		; 000000fcH
  00009	53		 push	 ebx
  0000a	56		 push	 esi
  0000b	57		 push	 edi
  0000c	51		 push	 ecx
  0000d	8d bd 04 ff ff
	ff		 lea	 edi, DWORD PTR [ebp-252]
  00013	b9 3f 00 00 00	 mov	 ecx, 63			; 0000003fH
  00018	b8 cc cc cc cc	 mov	 eax, -858993460		; ccccccccH
  0001d	f3 ab		 rep stosd
  0001f	59		 pop	 ecx
  00020	89 4d f8	 mov	 DWORD PTR _this$[ebp], ecx
; Line 3900
  00023	8b 4d f8	 mov	 ecx, DWORD PTR _this$[ebp]
  00026	e8 00 00 00 00	 call	 ?_Orphan_all@?$_String_alloc@U?$_String_base_types@DV?$allocator@D@std@@@std@@@std@@QAEXXZ ; std::_String_alloc<std::_String_base_types<char,std::allocator<char> > >::_Orphan_all
; Line 3901
  0002b	8b 4d f8	 mov	 ecx, DWORD PTR _this$[ebp]
  0002e	e8 00 00 00 00	 call	 ?_Get_data@?$_String_alloc@U?$_String_base_types@DV?$allocator@D@std@@@std@@@std@@QAEAAV?$_String_val@U?$_Simple_types@D@std@@@2@XZ ; std::_String_alloc<std::_String_base_types<char,std::allocator<char> > >::_Get_data
  00033	89 45 ec	 mov	 DWORD PTR __My_data$[ebp], eax
; Line 3902
  00036	8b 4d ec	 mov	 ecx, DWORD PTR __My_data$[ebp]
  00039	e8 00 00 00 00	 call	 ?_Large_string_engaged@?$_String_val@U?$_Simple_types@D@std@@@std@@QBE_NXZ ; std::_String_val<std::_Simple_types<char> >::_Large_string_engaged
  0003e	0f b6 c0	 movzx	 eax, al
  00041	85 c0		 test	 eax, eax
  00043	74 46		 je	 SHORT $LN2@Tidy_deall
; Line 3904
  00045	8b 45 ec	 mov	 eax, DWORD PTR __My_data$[ebp]
  00048	8b 48 04	 mov	 ecx, DWORD PTR [eax+4]
  0004b	89 4d e0	 mov	 DWORD PTR __Ptr$3[ebp], ecx
; Line 3905
  0004e	8b 4d f8	 mov	 ecx, DWORD PTR _this$[ebp]
  00051	e8 00 00 00 00	 call	 ?_Getal@?$_String_alloc@U?$_String_base_types@DV?$allocator@D@std@@@std@@@std@@QAEAAV?$allocator@D@2@XZ ; std::_String_alloc<std::_String_base_types<char,std::allocator<char> > >::_Getal
  00056	89 45 d4	 mov	 DWORD PTR __Al$2[ebp], eax
; Line 3906
  00059	8b 45 ec	 mov	 eax, DWORD PTR __My_data$[ebp]
  0005c	83 c0 04	 add	 eax, 4
  0005f	50		 push	 eax
  00060	e8 00 00 00 00	 call	 ??$addressof@PAD@std@@YAPAPADAAPAD@Z ; std::addressof<char *>
  00065	83 c4 04	 add	 esp, 4
  00068	50		 push	 eax
  00069	8b 4d d4	 mov	 ecx, DWORD PTR __Al$2[ebp]
  0006c	51		 push	 ecx
  0006d	e8 00 00 00 00	 call	 ??$destroy@PAD@?$_Default_allocator_traits@V?$allocator@D@std@@@std@@SAXAAV?$allocator@D@1@QAPAD@Z ; std::_Default_allocator_traits<std::allocator<char> >::destroy<char *>
  00072	83 c4 08	 add	 esp, 8
; Line 3907
  00075	8b 45 ec	 mov	 eax, DWORD PTR __My_data$[ebp]
  00078	8b 48 18	 mov	 ecx, DWORD PTR [eax+24]
  0007b	83 c1 01	 add	 ecx, 1
  0007e	51		 push	 ecx
  0007f	8b 55 e0	 mov	 edx, DWORD PTR __Ptr$3[ebp]
  00082	52		 push	 edx
  00083	8b 4d d4	 mov	 ecx, DWORD PTR __Al$2[ebp]
  00086	e8 00 00 00 00	 call	 ?deallocate@?$allocator@D@std@@QAEXQADI@Z ; std::allocator<char>::deallocate
$LN2@Tidy_deall:
; Line 3910
  0008b	8b 45 ec	 mov	 eax, DWORD PTR __My_data$[ebp]
  0008e	c7 40 14 00 00
	00 00		 mov	 DWORD PTR [eax+20], 0
; Line 3911
  00095	8b 45 ec	 mov	 eax, DWORD PTR __My_data$[ebp]
  00098	c7 40 18 0f 00
	00 00		 mov	 DWORD PTR [eax+24], 15	; 0000000fH
; Line 3914
  0009f	c6 85 0b ff ff
	ff 00		 mov	 BYTE PTR $T1[ebp], 0
  000a6	8d 85 0b ff ff
	ff		 lea	 eax, DWORD PTR $T1[ebp]
  000ac	50		 push	 eax
  000ad	b9 01 00 00 00	 mov	 ecx, 1
  000b2	6b d1 00	 imul	 edx, ecx, 0
  000b5	8b 45 ec	 mov	 eax, DWORD PTR __My_data$[ebp]
  000b8	8d 4c 10 04	 lea	 ecx, DWORD PTR [eax+edx+4]
  000bc	51		 push	 ecx
  000bd	e8 00 00 00 00	 call	 ?assign@?$char_traits@D@std@@SAXAADABD@Z ; std::char_traits<char>::assign
  000c2	83 c4 08	 add	 esp, 8
; Line 3915
  000c5	5f		 pop	 edi
  000c6	5e		 pop	 esi
  000c7	5b		 pop	 ebx
  000c8	81 c4 fc 00 00
	00		 add	 esp, 252		; 000000fcH
  000ce	3b ec		 cmp	 ebp, esp
  000d0	e8 00 00 00 00	 call	 __RTC_CheckEsp
  000d5	8b e5		 mov	 esp, ebp
  000d7	5d		 pop	 ebp
  000d8	c3		 ret	 0
?_Tidy_deallocate@?$basic_string@DU?$char_traits@D@std@@V?$allocator@D@2@@std@@QAEXXZ ENDP ; std::basic_string<char,std::char_traits<char>,std::allocator<char> >::_Tidy_deallocate
_TEXT	ENDS
; Function compile flags: /Odtp /RTCsu /ZI
;	COMDAT ?_Tidy_init@?$basic_string@DU?$char_traits@D@std@@V?$allocator@D@2@@std@@QAEXXZ
_TEXT	SEGMENT
$T1 = -221						; size = 1
__My_data$ = -20					; size = 4
_this$ = -8						; size = 4
?_Tidy_init@?$basic_string@DU?$char_traits@D@std@@V?$allocator@D@2@@std@@QAEXXZ PROC ; std::basic_string<char,std::char_traits<char>,std::allocator<char> >::_Tidy_init, COMDAT
; _this$ = ecx
; File c:\program files (x86)\microsoft visual studio\2017\community\vc\tools\msvc\14.13.26128\include\xstring
; Line 3889
  00000	55		 push	 ebp
  00001	8b ec		 mov	 ebp, esp
  00003	81 ec e4 00 00
	00		 sub	 esp, 228		; 000000e4H
  00009	53		 push	 ebx
  0000a	56		 push	 esi
  0000b	57		 push	 edi
  0000c	51		 push	 ecx
  0000d	8d bd 1c ff ff
	ff		 lea	 edi, DWORD PTR [ebp-228]
  00013	b9 39 00 00 00	 mov	 ecx, 57			; 00000039H
  00018	b8 cc cc cc cc	 mov	 eax, -858993460		; ccccccccH
  0001d	f3 ab		 rep stosd
  0001f	59		 pop	 ecx
  00020	89 4d f8	 mov	 DWORD PTR _this$[ebp], ecx
; Line 3890
  00023	8b 4d f8	 mov	 ecx, DWORD PTR _this$[ebp]
  00026	e8 00 00 00 00	 call	 ?_Get_data@?$_String_alloc@U?$_String_base_types@DV?$allocator@D@std@@@std@@@std@@QAEAAV?$_String_val@U?$_Simple_types@D@std@@@2@XZ ; std::_String_alloc<std::_String_base_types<char,std::allocator<char> > >::_Get_data
  0002b	89 45 ec	 mov	 DWORD PTR __My_data$[ebp], eax
; Line 3891
  0002e	8b 45 ec	 mov	 eax, DWORD PTR __My_data$[ebp]
  00031	c7 40 14 00 00
	00 00		 mov	 DWORD PTR [eax+20], 0
; Line 3892
  00038	8b 45 ec	 mov	 eax, DWORD PTR __My_data$[ebp]
  0003b	c7 40 18 0f 00
	00 00		 mov	 DWORD PTR [eax+24], 15	; 0000000fH
; Line 3895
  00042	c6 85 23 ff ff
	ff 00		 mov	 BYTE PTR $T1[ebp], 0
  00049	8d 85 23 ff ff
	ff		 lea	 eax, DWORD PTR $T1[ebp]
  0004f	50		 push	 eax
  00050	b9 01 00 00 00	 mov	 ecx, 1
  00055	6b d1 00	 imul	 edx, ecx, 0
  00058	8b 45 ec	 mov	 eax, DWORD PTR __My_data$[ebp]
  0005b	8d 4c 10 04	 lea	 ecx, DWORD PTR [eax+edx+4]
  0005f	51		 push	 ecx
  00060	e8 00 00 00 00	 call	 ?assign@?$char_traits@D@std@@SAXAADABD@Z ; std::char_traits<char>::assign
  00065	83 c4 08	 add	 esp, 8
; Line 3896
  00068	5f		 pop	 edi
  00069	5e		 pop	 esi
  0006a	5b		 pop	 ebx
  0006b	81 c4 e4 00 00
	00		 add	 esp, 228		; 000000e4H
  00071	3b ec		 cmp	 ebp, esp
  00073	e8 00 00 00 00	 call	 __RTC_CheckEsp
  00078	8b e5		 mov	 esp, ebp
  0007a	5d		 pop	 ebp
  0007b	c3		 ret	 0
?_Tidy_init@?$basic_string@DU?$char_traits@D@std@@V?$allocator@D@2@@std@@QAEXXZ ENDP ; std::basic_string<char,std::char_traits<char>,std::allocator<char> >::_Tidy_init
_TEXT	ENDS
; Function compile flags: /Odtp /RTCsu /ZI
;	COMDAT ?_Become_small@?$basic_string@DU?$char_traits@D@std@@V?$allocator@D@2@@std@@QAEXXZ
_TEXT	SEGMENT
__Al$ = -44						; size = 4
__Ptr$ = -32						; size = 4
__My_data$ = -20					; size = 4
_this$ = -8						; size = 4
?_Become_small@?$basic_string@DU?$char_traits@D@std@@V?$allocator@D@2@@std@@QAEXXZ PROC ; std::basic_string<char,std::char_traits<char>,std::allocator<char> >::_Become_small, COMDAT
; _this$ = ecx
; File c:\program files (x86)\microsoft visual studio\2017\community\vc\tools\msvc\14.13.26128\include\xstring
; Line 3869
  00000	55		 push	 ebp
  00001	8b ec		 mov	 ebp, esp
  00003	81 ec f0 00 00
	00		 sub	 esp, 240		; 000000f0H
  00009	53		 push	 ebx
  0000a	56		 push	 esi
  0000b	57		 push	 edi
  0000c	51		 push	 ecx
  0000d	8d bd 10 ff ff
	ff		 lea	 edi, DWORD PTR [ebp-240]
  00013	b9 3c 00 00 00	 mov	 ecx, 60			; 0000003cH
  00018	b8 cc cc cc cc	 mov	 eax, -858993460		; ccccccccH
  0001d	f3 ab		 rep stosd
  0001f	59		 pop	 ecx
  00020	89 4d f8	 mov	 DWORD PTR _this$[ebp], ecx
; Line 3872
  00023	8b 4d f8	 mov	 ecx, DWORD PTR _this$[ebp]
  00026	e8 00 00 00 00	 call	 ?_Get_data@?$_String_alloc@U?$_String_base_types@DV?$allocator@D@std@@@std@@@std@@QAEAAV?$_String_val@U?$_Simple_types@D@std@@@2@XZ ; std::_String_alloc<std::_String_base_types<char,std::allocator<char> > >::_Get_data
  0002b	89 45 ec	 mov	 DWORD PTR __My_data$[ebp], eax
; Line 3873
  0002e	8b 4d ec	 mov	 ecx, DWORD PTR __My_data$[ebp]
  00031	e8 00 00 00 00	 call	 ?_Orphan_all@_Container_base12@std@@QAEXXZ ; std::_Container_base12::_Orphan_all
; Line 3874
  00036	8b 45 ec	 mov	 eax, DWORD PTR __My_data$[ebp]
  00039	8b 48 04	 mov	 ecx, DWORD PTR [eax+4]
  0003c	89 4d e0	 mov	 DWORD PTR __Ptr$[ebp], ecx
; Line 3875
  0003f	8b 4d f8	 mov	 ecx, DWORD PTR _this$[ebp]
  00042	e8 00 00 00 00	 call	 ?_Getal@?$_String_alloc@U?$_String_base_types@DV?$allocator@D@std@@@std@@@std@@QAEAAV?$allocator@D@2@XZ ; std::_String_alloc<std::_String_base_types<char,std::allocator<char> > >::_Getal
  00047	89 45 d4	 mov	 DWORD PTR __Al$[ebp], eax
; Line 3876
  0004a	8b 45 ec	 mov	 eax, DWORD PTR __My_data$[ebp]
  0004d	83 c0 04	 add	 eax, 4
  00050	50		 push	 eax
  00051	e8 00 00 00 00	 call	 ??$addressof@PAD@std@@YAPAPADAAPAD@Z ; std::addressof<char *>
  00056	83 c4 04	 add	 esp, 4
  00059	50		 push	 eax
  0005a	8b 4d d4	 mov	 ecx, DWORD PTR __Al$[ebp]
  0005d	51		 push	 ecx
  0005e	e8 00 00 00 00	 call	 ??$destroy@PAD@?$_Default_allocator_traits@V?$allocator@D@std@@@std@@SAXAAV?$allocator@D@1@QAPAD@Z ; std::_Default_allocator_traits<std::allocator<char> >::destroy<char *>
  00063	83 c4 08	 add	 esp, 8
; Line 3877
  00066	8b 45 ec	 mov	 eax, DWORD PTR __My_data$[ebp]
  00069	8b 48 14	 mov	 ecx, DWORD PTR [eax+20]
  0006c	83 c1 01	 add	 ecx, 1
  0006f	51		 push	 ecx
  00070	8b 55 e0	 mov	 edx, DWORD PTR __Ptr$[ebp]
  00073	52		 push	 edx
  00074	e8 00 00 00 00	 call	 ??$_Unfancy@D@std@@YAPADPAD@Z ; std::_Unfancy<char>
  00079	83 c4 04	 add	 esp, 4
  0007c	50		 push	 eax
  0007d	8b 45 ec	 mov	 eax, DWORD PTR __My_data$[ebp]
  00080	83 c0 04	 add	 eax, 4
  00083	50		 push	 eax
  00084	e8 00 00 00 00	 call	 ?copy@?$char_traits@D@std@@SAPADQADQBDI@Z ; std::char_traits<char>::copy
  00089	83 c4 0c	 add	 esp, 12			; 0000000cH
; Line 3878
  0008c	8b 45 ec	 mov	 eax, DWORD PTR __My_data$[ebp]
  0008f	8b 48 18	 mov	 ecx, DWORD PTR [eax+24]
  00092	83 c1 01	 add	 ecx, 1
  00095	51		 push	 ecx
  00096	8b 55 e0	 mov	 edx, DWORD PTR __Ptr$[ebp]
  00099	52		 push	 edx
  0009a	8b 4d d4	 mov	 ecx, DWORD PTR __Al$[ebp]
  0009d	e8 00 00 00 00	 call	 ?deallocate@?$allocator@D@std@@QAEXQADI@Z ; std::allocator<char>::deallocate
; Line 3879
  000a2	8b 45 ec	 mov	 eax, DWORD PTR __My_data$[ebp]
  000a5	c7 40 18 0f 00
	00 00		 mov	 DWORD PTR [eax+24], 15	; 0000000fH
; Line 3880
  000ac	5f		 pop	 edi
  000ad	5e		 pop	 esi
  000ae	5b		 pop	 ebx
  000af	81 c4 f0 00 00
	00		 add	 esp, 240		; 000000f0H
  000b5	3b ec		 cmp	 ebp, esp
  000b7	e8 00 00 00 00	 call	 __RTC_CheckEsp
  000bc	8b e5		 mov	 esp, ebp
  000be	5d		 pop	 ebp
  000bf	c3		 ret	 0
?_Become_small@?$basic_string@DU?$char_traits@D@std@@V?$allocator@D@2@@std@@QAEXXZ ENDP ; std::basic_string<char,std::char_traits<char>,std::allocator<char> >::_Become_small
_TEXT	ENDS
; Function compile flags: /Odtp /RTCsu /ZI
;	COMDAT ?_Calculate_growth@?$basic_string@DU?$char_traits@D@std@@V?$allocator@D@2@@std@@QBEII@Z
_TEXT	SEGMENT
$T1 = -264						; size = 4
__Old$ = -60						; size = 4
__Masked$ = -48						; size = 4
__My_data$ = -36					; size = 4
__Max$ = -24						; size = 4
_this$ = -12						; size = 4
__$ArrayPad$ = -4					; size = 4
__Requested$ = 8					; size = 4
?_Calculate_growth@?$basic_string@DU?$char_traits@D@std@@V?$allocator@D@2@@std@@QBEII@Z PROC ; std::basic_string<char,std::char_traits<char>,std::allocator<char> >::_Calculate_growth, COMDAT
; _this$ = ecx
; File c:\program files (x86)\microsoft visual studio\2017\community\vc\tools\msvc\14.13.26128\include\xstring
; Line 3781
  00000	55		 push	 ebp
  00001	8b ec		 mov	 ebp, esp
  00003	81 ec 0c 01 00
	00		 sub	 esp, 268		; 0000010cH
  00009	53		 push	 ebx
  0000a	56		 push	 esi
  0000b	57		 push	 edi
  0000c	51		 push	 ecx
  0000d	8d bd f4 fe ff
	ff		 lea	 edi, DWORD PTR [ebp-268]
  00013	b9 43 00 00 00	 mov	 ecx, 67			; 00000043H
  00018	b8 cc cc cc cc	 mov	 eax, -858993460		; ccccccccH
  0001d	f3 ab		 rep stosd
  0001f	59		 pop	 ecx
  00020	a1 00 00 00 00	 mov	 eax, DWORD PTR ___security_cookie
  00025	33 c5		 xor	 eax, ebp
  00027	89 45 fc	 mov	 DWORD PTR __$ArrayPad$[ebp], eax
  0002a	89 4d f4	 mov	 DWORD PTR _this$[ebp], ecx
; Line 3782
  0002d	8b 4d f4	 mov	 ecx, DWORD PTR _this$[ebp]
  00030	e8 00 00 00 00	 call	 ?max_size@?$basic_string@DU?$char_traits@D@std@@V?$allocator@D@2@@std@@QBEIXZ ; std::basic_string<char,std::char_traits<char>,std::allocator<char> >::max_size
  00035	89 45 e8	 mov	 DWORD PTR __Max$[ebp], eax
; Line 3783
  00038	8b 4d f4	 mov	 ecx, DWORD PTR _this$[ebp]
  0003b	e8 00 00 00 00	 call	 ?_Get_data@?$_String_alloc@U?$_String_base_types@DV?$allocator@D@std@@@std@@@std@@QBEABV?$_String_val@U?$_Simple_types@D@std@@@2@XZ ; std::_String_alloc<std::_String_base_types<char,std::allocator<char> > >::_Get_data
  00040	89 45 dc	 mov	 DWORD PTR __My_data$[ebp], eax
; Line 3784
  00043	8b 45 08	 mov	 eax, DWORD PTR __Requested$[ebp]
  00046	83 c8 0f	 or	 eax, 15			; 0000000fH
  00049	89 45 d0	 mov	 DWORD PTR __Masked$[ebp], eax
; Line 3785
  0004c	8b 45 d0	 mov	 eax, DWORD PTR __Masked$[ebp]
  0004f	3b 45 e8	 cmp	 eax, DWORD PTR __Max$[ebp]
  00052	76 05		 jbe	 SHORT $LN2@Calculate_
; Line 3787
  00054	8b 45 e8	 mov	 eax, DWORD PTR __Max$[ebp]
  00057	eb 40		 jmp	 SHORT $LN1@Calculate_
$LN2@Calculate_:
; Line 3790
  00059	8b 45 dc	 mov	 eax, DWORD PTR __My_data$[ebp]
  0005c	8b 48 18	 mov	 ecx, DWORD PTR [eax+24]
  0005f	89 4d c4	 mov	 DWORD PTR __Old$[ebp], ecx
; Line 3791
  00062	8b 45 c4	 mov	 eax, DWORD PTR __Old$[ebp]
  00065	d1 e8		 shr	 eax, 1
  00067	8b 4d e8	 mov	 ecx, DWORD PTR __Max$[ebp]
  0006a	2b c8		 sub	 ecx, eax
  0006c	39 4d c4	 cmp	 DWORD PTR __Old$[ebp], ecx
  0006f	76 05		 jbe	 SHORT $LN3@Calculate_
; Line 3793
  00071	8b 45 e8	 mov	 eax, DWORD PTR __Max$[ebp]
  00074	eb 23		 jmp	 SHORT $LN1@Calculate_
$LN3@Calculate_:
; Line 3796
  00076	8b 45 c4	 mov	 eax, DWORD PTR __Old$[ebp]
  00079	d1 e8		 shr	 eax, 1
  0007b	03 45 c4	 add	 eax, DWORD PTR __Old$[ebp]
  0007e	89 85 f8 fe ff
	ff		 mov	 DWORD PTR $T1[ebp], eax
  00084	8d 8d f8 fe ff
	ff		 lea	 ecx, DWORD PTR $T1[ebp]
  0008a	51		 push	 ecx
  0008b	8d 55 d0	 lea	 edx, DWORD PTR __Masked$[ebp]
  0008e	52		 push	 edx
  0008f	e8 00 00 00 00	 call	 ??$_Max_value@I@std@@YAABIABI0@Z ; std::_Max_value<unsigned int>
  00094	83 c4 08	 add	 esp, 8
  00097	8b 00		 mov	 eax, DWORD PTR [eax]
$LN1@Calculate_:
; Line 3797
  00099	52		 push	 edx
  0009a	8b cd		 mov	 ecx, ebp
  0009c	50		 push	 eax
  0009d	8d 15 00 00 00
	00		 lea	 edx, DWORD PTR $LN7@Calculate_
  000a3	e8 00 00 00 00	 call	 @_RTC_CheckStackVars@8
  000a8	58		 pop	 eax
  000a9	5a		 pop	 edx
  000aa	5f		 pop	 edi
  000ab	5e		 pop	 esi
  000ac	5b		 pop	 ebx
  000ad	8b 4d fc	 mov	 ecx, DWORD PTR __$ArrayPad$[ebp]
  000b0	33 cd		 xor	 ecx, ebp
  000b2	e8 00 00 00 00	 call	 @__security_check_cookie@4
  000b7	81 c4 0c 01 00
	00		 add	 esp, 268		; 0000010cH
  000bd	3b ec		 cmp	 ebp, esp
  000bf	e8 00 00 00 00	 call	 __RTC_CheckEsp
  000c4	8b e5		 mov	 esp, ebp
  000c6	5d		 pop	 ebp
  000c7	c2 04 00	 ret	 4
  000ca	66 90		 npad	 2
$LN7@Calculate_:
  000cc	01 00 00 00	 DD	 1
  000d0	00 00 00 00	 DD	 $LN6@Calculate_
$LN6@Calculate_:
  000d4	d0 ff ff ff	 DD	 -48			; ffffffd0H
  000d8	04 00 00 00	 DD	 4
  000dc	00 00 00 00	 DD	 $LN5@Calculate_
$LN5@Calculate_:
  000e0	5f		 DB	 95			; 0000005fH
  000e1	4d		 DB	 77			; 0000004dH
  000e2	61		 DB	 97			; 00000061H
  000e3	73		 DB	 115			; 00000073H
  000e4	6b		 DB	 107			; 0000006bH
  000e5	65		 DB	 101			; 00000065H
  000e6	64		 DB	 100			; 00000064H
  000e7	00		 DB	 0
?_Calculate_growth@?$basic_string@DU?$char_traits@D@std@@V?$allocator@D@2@@std@@QBEII@Z ENDP ; std::basic_string<char,std::char_traits<char>,std::allocator<char> >::_Calculate_growth
_TEXT	ENDS
; Function compile flags: /Odtp /RTCsu /ZI
;	COMDAT ?reserve@?$basic_string@DU?$char_traits@D@std@@V?$allocator@D@2@@std@@QAEXI@Z
_TEXT	SEGMENT
$T1 = -233						; size = 1
__Old_size$2 = -32					; size = 4
__My_data$ = -20					; size = 4
_this$ = -8						; size = 4
__Newcap$ = 8						; size = 4
?reserve@?$basic_string@DU?$char_traits@D@std@@V?$allocator@D@2@@std@@QAEXI@Z PROC ; std::basic_string<char,std::char_traits<char>,std::allocator<char> >::reserve, COMDAT
; _this$ = ecx
; File c:\program files (x86)\microsoft visual studio\2017\community\vc\tools\msvc\14.13.26128\include\xstring
; Line 3275
  00000	55		 push	 ebp
  00001	8b ec		 mov	 ebp, esp
  00003	81 ec f0 00 00
	00		 sub	 esp, 240		; 000000f0H
  00009	53		 push	 ebx
  0000a	56		 push	 esi
  0000b	57		 push	 edi
  0000c	51		 push	 ecx
  0000d	8d bd 10 ff ff
	ff		 lea	 edi, DWORD PTR [ebp-240]
  00013	b9 3c 00 00 00	 mov	 ecx, 60			; 0000003cH
  00018	b8 cc cc cc cc	 mov	 eax, -858993460		; ccccccccH
  0001d	f3 ab		 rep stosd
  0001f	59		 pop	 ecx
  00020	89 4d f8	 mov	 DWORD PTR _this$[ebp], ecx
; Line 3276
  00023	8b 4d f8	 mov	 ecx, DWORD PTR _this$[ebp]
  00026	e8 00 00 00 00	 call	 ?_Get_data@?$_String_alloc@U?$_String_base_types@DV?$allocator@D@std@@@std@@@std@@QAEAAV?$_String_val@U?$_Simple_types@D@std@@@2@XZ ; std::_String_alloc<std::_String_base_types<char,std::allocator<char> > >::_Get_data
  0002b	89 45 ec	 mov	 DWORD PTR __My_data$[ebp], eax
; Line 3277
  0002e	8b 45 ec	 mov	 eax, DWORD PTR __My_data$[ebp]
  00031	8b 48 14	 mov	 ecx, DWORD PTR [eax+20]
  00034	3b 4d 08	 cmp	 ecx, DWORD PTR __Newcap$[ebp]
  00037	76 02		 jbe	 SHORT $LN2@reserve
; Line 3279
  00039	eb 68		 jmp	 SHORT $LN1@reserve
$LN2@reserve:
; Line 3282
  0003b	8b 45 ec	 mov	 eax, DWORD PTR __My_data$[ebp]
  0003e	8b 48 18	 mov	 ecx, DWORD PTR [eax+24]
  00041	3b 4d 08	 cmp	 ecx, DWORD PTR __Newcap$[ebp]
  00044	75 02		 jne	 SHORT $LN3@reserve
; Line 3284
  00046	eb 5b		 jmp	 SHORT $LN1@reserve
$LN3@reserve:
; Line 3287
  00048	8b 45 ec	 mov	 eax, DWORD PTR __My_data$[ebp]
  0004b	8b 48 18	 mov	 ecx, DWORD PTR [eax+24]
  0004e	3b 4d 08	 cmp	 ecx, DWORD PTR __Newcap$[ebp]
  00051	73 33		 jae	 SHORT $LN4@reserve
; Line 3289
  00053	8b 45 ec	 mov	 eax, DWORD PTR __My_data$[ebp]
  00056	8b 48 14	 mov	 ecx, DWORD PTR [eax+20]
  00059	89 4d e0	 mov	 DWORD PTR __Old_size$2[ebp], ecx
; Line 3290
  0005c	33 c0		 xor	 eax, eax
  0005e	88 85 17 ff ff
	ff		 mov	 BYTE PTR $T1[ebp], al
  00064	0f b6 8d 17 ff
	ff ff		 movzx	 ecx, BYTE PTR $T1[ebp]
  0006b	51		 push	 ecx
  0006c	8b 55 08	 mov	 edx, DWORD PTR __Newcap$[ebp]
  0006f	2b 55 e0	 sub	 edx, DWORD PTR __Old_size$2[ebp]
  00072	52		 push	 edx
  00073	8b 4d f8	 mov	 ecx, DWORD PTR _this$[ebp]
  00076	e8 00 00 00 00	 call	 ??$_Reallocate_grow_by@V<lambda_67d87d4aa1269033985980465fd1d824>@@$$V@?$basic_string@DU?$char_traits@D@std@@V?$allocator@D@2@@std@@QAEAAV01@IV<lambda_67d87d4aa1269033985980465fd1d824>@@@Z ; std::basic_string<char,std::char_traits<char>,std::allocator<char> >::_Reallocate_grow_by<<lambda_67d87d4aa1269033985980465fd1d824> >
; Line 3295
  0007b	8b 45 ec	 mov	 eax, DWORD PTR __My_data$[ebp]
  0007e	8b 4d e0	 mov	 ecx, DWORD PTR __Old_size$2[ebp]
  00081	89 48 14	 mov	 DWORD PTR [eax+20], ecx
; Line 3296
  00084	eb 1d		 jmp	 SHORT $LN1@reserve
$LN4@reserve:
; Line 3299
  00086	83 7d 08 10	 cmp	 DWORD PTR __Newcap$[ebp], 16 ; 00000010H
  0008a	73 17		 jae	 SHORT $LN1@reserve
  0008c	8b 4d ec	 mov	 ecx, DWORD PTR __My_data$[ebp]
  0008f	e8 00 00 00 00	 call	 ?_Large_string_engaged@?$_String_val@U?$_Simple_types@D@std@@@std@@QBE_NXZ ; std::_String_val<std::_Simple_types<char> >::_Large_string_engaged
  00094	0f b6 c0	 movzx	 eax, al
  00097	85 c0		 test	 eax, eax
  00099	74 08		 je	 SHORT $LN1@reserve
; Line 3301
  0009b	8b 4d f8	 mov	 ecx, DWORD PTR _this$[ebp]
  0009e	e8 00 00 00 00	 call	 ?_Become_small@?$basic_string@DU?$char_traits@D@std@@V?$allocator@D@2@@std@@QAEXXZ ; std::basic_string<char,std::char_traits<char>,std::allocator<char> >::_Become_small
$LN1@reserve:
; Line 3306
  000a3	5f		 pop	 edi
  000a4	5e		 pop	 esi
  000a5	5b		 pop	 ebx
  000a6	81 c4 f0 00 00
	00		 add	 esp, 240		; 000000f0H
  000ac	3b ec		 cmp	 ebp, esp
  000ae	e8 00 00 00 00	 call	 __RTC_CheckEsp
  000b3	8b e5		 mov	 esp, ebp
  000b5	5d		 pop	 ebp
  000b6	c2 04 00	 ret	 4
?reserve@?$basic_string@DU?$char_traits@D@std@@V?$allocator@D@2@@std@@QAEXI@Z ENDP ; std::basic_string<char,std::char_traits<char>,std::allocator<char> >::reserve
_TEXT	ENDS
; Function compile flags: /Odtp /RTCsu /ZI
;	COMDAT ?max_size@?$basic_string@DU?$char_traits@D@std@@V?$allocator@D@2@@std@@QBEIXZ
_TEXT	SEGMENT
$T1 = -264						; size = 4
$T2 = -252						; size = 4
$T3 = -240						; size = 4
__Storage_max$ = -36					; size = 4
__Alloc_max$ = -24					; size = 4
_this$ = -12						; size = 4
__$ArrayPad$ = -4					; size = 4
?max_size@?$basic_string@DU?$char_traits@D@std@@V?$allocator@D@2@@std@@QBEIXZ PROC ; std::basic_string<char,std::char_traits<char>,std::allocator<char> >::max_size, COMDAT
; _this$ = ecx
; File c:\program files (x86)\microsoft visual studio\2017\community\vc\tools\msvc\14.13.26128\include\xstring
; Line 3245
  00000	55		 push	 ebp
  00001	8b ec		 mov	 ebp, esp
  00003	81 ec 0c 01 00
	00		 sub	 esp, 268		; 0000010cH
  00009	53		 push	 ebx
  0000a	56		 push	 esi
  0000b	57		 push	 edi
  0000c	51		 push	 ecx
  0000d	8d bd f4 fe ff
	ff		 lea	 edi, DWORD PTR [ebp-268]
  00013	b9 43 00 00 00	 mov	 ecx, 67			; 00000043H
  00018	b8 cc cc cc cc	 mov	 eax, -858993460		; ccccccccH
  0001d	f3 ab		 rep stosd
  0001f	59		 pop	 ecx
  00020	a1 00 00 00 00	 mov	 eax, DWORD PTR ___security_cookie
  00025	33 c5		 xor	 eax, ebp
  00027	89 45 fc	 mov	 DWORD PTR __$ArrayPad$[ebp], eax
  0002a	89 4d f4	 mov	 DWORD PTR _this$[ebp], ecx
; Line 3246
  0002d	8b 4d f4	 mov	 ecx, DWORD PTR _this$[ebp]
  00030	e8 00 00 00 00	 call	 ?_Getal@?$_String_alloc@U?$_String_base_types@DV?$allocator@D@std@@@std@@@std@@QBEABV?$allocator@D@2@XZ ; std::_String_alloc<std::_String_base_types<char,std::allocator<char> > >::_Getal
  00035	50		 push	 eax
  00036	e8 00 00 00 00	 call	 ?max_size@?$_Default_allocator_traits@V?$allocator@D@std@@@std@@SAIABV?$allocator@D@2@@Z ; std::_Default_allocator_traits<std::allocator<char> >::max_size
  0003b	83 c4 04	 add	 esp, 4
  0003e	89 45 e8	 mov	 DWORD PTR __Alloc_max$[ebp], eax
; Line 3248
  00041	c7 85 10 ff ff
	ff 10 00 00 00	 mov	 DWORD PTR $T3[ebp], 16	; 00000010H
  0004b	8d 85 10 ff ff
	ff		 lea	 eax, DWORD PTR $T3[ebp]
  00051	50		 push	 eax
  00052	8d 4d e8	 lea	 ecx, DWORD PTR __Alloc_max$[ebp]
  00055	51		 push	 ecx
  00056	e8 00 00 00 00	 call	 ??$_Max_value@I@std@@YAABIABI0@Z ; std::_Max_value<unsigned int>
  0005b	83 c4 08	 add	 esp, 8
  0005e	8b 10		 mov	 edx, DWORD PTR [eax]
  00060	89 55 dc	 mov	 DWORD PTR __Storage_max$[ebp], edx
; Line 3249
  00063	8b 45 dc	 mov	 eax, DWORD PTR __Storage_max$[ebp]
  00066	83 e8 01	 sub	 eax, 1
  00069	89 85 04 ff ff
	ff		 mov	 DWORD PTR $T2[ebp], eax
  0006f	e8 00 00 00 00	 call	 ?max@?$numeric_limits@H@std@@SAHXZ ; std::numeric_limits<int>::max
  00074	89 85 f8 fe ff
	ff		 mov	 DWORD PTR $T1[ebp], eax
  0007a	8d 8d 04 ff ff
	ff		 lea	 ecx, DWORD PTR $T2[ebp]
  00080	51		 push	 ecx
  00081	8d 95 f8 fe ff
	ff		 lea	 edx, DWORD PTR $T1[ebp]
  00087	52		 push	 edx
  00088	e8 00 00 00 00	 call	 ??$_Min_value@I@std@@YAABIABI0@Z ; std::_Min_value<unsigned int>
  0008d	83 c4 08	 add	 esp, 8
  00090	8b 00		 mov	 eax, DWORD PTR [eax]
; Line 3254
  00092	52		 push	 edx
  00093	8b cd		 mov	 ecx, ebp
  00095	50		 push	 eax
  00096	8d 15 00 00 00
	00		 lea	 edx, DWORD PTR $LN5@max_size
  0009c	e8 00 00 00 00	 call	 @_RTC_CheckStackVars@8
  000a1	58		 pop	 eax
  000a2	5a		 pop	 edx
  000a3	5f		 pop	 edi
  000a4	5e		 pop	 esi
  000a5	5b		 pop	 ebx
  000a6	8b 4d fc	 mov	 ecx, DWORD PTR __$ArrayPad$[ebp]
  000a9	33 cd		 xor	 ecx, ebp
  000ab	e8 00 00 00 00	 call	 @__security_check_cookie@4
  000b0	81 c4 0c 01 00
	00		 add	 esp, 268		; 0000010cH
  000b6	3b ec		 cmp	 ebp, esp
  000b8	e8 00 00 00 00	 call	 __RTC_CheckEsp
  000bd	8b e5		 mov	 esp, ebp
  000bf	5d		 pop	 ebp
  000c0	c3		 ret	 0
  000c1	0f 1f 00	 npad	 3
$LN5@max_size:
  000c4	01 00 00 00	 DD	 1
  000c8	00 00 00 00	 DD	 $LN4@max_size
$LN4@max_size:
  000cc	e8 ff ff ff	 DD	 -24			; ffffffe8H
  000d0	04 00 00 00	 DD	 4
  000d4	00 00 00 00	 DD	 $LN3@max_size
$LN3@max_size:
  000d8	5f		 DB	 95			; 0000005fH
  000d9	41		 DB	 65			; 00000041H
  000da	6c		 DB	 108			; 0000006cH
  000db	6c		 DB	 108			; 0000006cH
  000dc	6f		 DB	 111			; 0000006fH
  000dd	63		 DB	 99			; 00000063H
  000de	5f		 DB	 95			; 0000005fH
  000df	6d		 DB	 109			; 0000006dH
  000e0	61		 DB	 97			; 00000061H
  000e1	78		 DB	 120			; 00000078H
  000e2	00		 DB	 0
?max_size@?$basic_string@DU?$char_traits@D@std@@V?$allocator@D@2@@std@@QBEIXZ ENDP ; std::basic_string<char,std::char_traits<char>,std::allocator<char> >::max_size
_TEXT	ENDS
; Function compile flags: /Odtp /RTCsu /ZI
;	COMDAT ?size@?$basic_string@DU?$char_traits@D@std@@V?$allocator@D@2@@std@@QBEIXZ
_TEXT	SEGMENT
_this$ = -8						; size = 4
?size@?$basic_string@DU?$char_traits@D@std@@V?$allocator@D@2@@std@@QBEIXZ PROC ; std::basic_string<char,std::char_traits<char>,std::allocator<char> >::size, COMDAT
; _this$ = ecx
; File c:\program files (x86)\microsoft visual studio\2017\community\vc\tools\msvc\14.13.26128\include\xstring
; Line 3240
  00000	55		 push	 ebp
  00001	8b ec		 mov	 ebp, esp
  00003	81 ec cc 00 00
	00		 sub	 esp, 204		; 000000ccH
  00009	53		 push	 ebx
  0000a	56		 push	 esi
  0000b	57		 push	 edi
  0000c	51		 push	 ecx
  0000d	8d bd 34 ff ff
	ff		 lea	 edi, DWORD PTR [ebp-204]
  00013	b9 33 00 00 00	 mov	 ecx, 51			; 00000033H
  00018	b8 cc cc cc cc	 mov	 eax, -858993460		; ccccccccH
  0001d	f3 ab		 rep stosd
  0001f	59		 pop	 ecx
  00020	89 4d f8	 mov	 DWORD PTR _this$[ebp], ecx
; Line 3241
  00023	8b 4d f8	 mov	 ecx, DWORD PTR _this$[ebp]
  00026	e8 00 00 00 00	 call	 ?_Get_data@?$_String_alloc@U?$_String_base_types@DV?$allocator@D@std@@@std@@@std@@QBEABV?$_String_val@U?$_Simple_types@D@std@@@2@XZ ; std::_String_alloc<std::_String_base_types<char,std::allocator<char> > >::_Get_data
  0002b	8b 40 14	 mov	 eax, DWORD PTR [eax+20]
; Line 3242
  0002e	5f		 pop	 edi
  0002f	5e		 pop	 esi
  00030	5b		 pop	 ebx
  00031	81 c4 cc 00 00
	00		 add	 esp, 204		; 000000ccH
  00037	3b ec		 cmp	 ebp, esp
  00039	e8 00 00 00 00	 call	 __RTC_CheckEsp
  0003e	8b e5		 mov	 esp, ebp
  00040	5d		 pop	 ebp
  00041	c3		 ret	 0
?size@?$basic_string@DU?$char_traits@D@std@@V?$allocator@D@2@@std@@QBEIXZ ENDP ; std::basic_string<char,std::char_traits<char>,std::allocator<char> >::size
_TEXT	ENDS
; Function compile flags: /Odtp /RTCsu /ZI
;	COMDAT ?data@?$basic_string@DU?$char_traits@D@std@@V?$allocator@D@2@@std@@QBEPBDXZ
_TEXT	SEGMENT
_this$ = -20						; size = 4
__$EHRec$ = -12						; size = 12
?data@?$basic_string@DU?$char_traits@D@std@@V?$allocator@D@2@@std@@QBEPBDXZ PROC ; std::basic_string<char,std::char_traits<char>,std::allocator<char> >::data, COMDAT
; _this$ = ecx
; File c:\program files (x86)\microsoft visual studio\2017\community\vc\tools\msvc\14.13.26128\include\xstring
; Line 3223
  00000	55		 push	 ebp
  00001	8b ec		 mov	 ebp, esp
  00003	6a ff		 push	 -1
  00005	68 00 00 00 00	 push	 __ehhandler$?data@?$basic_string@DU?$char_traits@D@std@@V?$allocator@D@2@@std@@QBEPBDXZ
  0000a	64 a1 00 00 00
	00		 mov	 eax, DWORD PTR fs:0
  00010	50		 push	 eax
  00011	81 ec cc 00 00
	00		 sub	 esp, 204		; 000000ccH
  00017	53		 push	 ebx
  00018	56		 push	 esi
  00019	57		 push	 edi
  0001a	51		 push	 ecx
  0001b	8d bd 28 ff ff
	ff		 lea	 edi, DWORD PTR [ebp-216]
  00021	b9 33 00 00 00	 mov	 ecx, 51			; 00000033H
  00026	b8 cc cc cc cc	 mov	 eax, -858993460		; ccccccccH
  0002b	f3 ab		 rep stosd
  0002d	59		 pop	 ecx
  0002e	a1 00 00 00 00	 mov	 eax, DWORD PTR ___security_cookie
  00033	33 c5		 xor	 eax, ebp
  00035	50		 push	 eax
  00036	8d 45 f4	 lea	 eax, DWORD PTR __$EHRec$[ebp]
  00039	64 a3 00 00 00
	00		 mov	 DWORD PTR fs:0, eax
  0003f	89 4d ec	 mov	 DWORD PTR _this$[ebp], ecx
; Line 3224
  00042	8b 4d ec	 mov	 ecx, DWORD PTR _this$[ebp]
  00045	e8 00 00 00 00	 call	 ?_Get_data@?$_String_alloc@U?$_String_base_types@DV?$allocator@D@std@@@std@@@std@@QBEABV?$_String_val@U?$_Simple_types@D@std@@@2@XZ ; std::_String_alloc<std::_String_base_types<char,std::allocator<char> > >::_Get_data
  0004a	8b c8		 mov	 ecx, eax
  0004c	e8 00 00 00 00	 call	 ?_Myptr@?$_String_val@U?$_Simple_types@D@std@@@std@@QBEPBDXZ ; std::_String_val<std::_Simple_types<char> >::_Myptr
; Line 3225
  00051	8b 4d f4	 mov	 ecx, DWORD PTR __$EHRec$[ebp]
  00054	64 89 0d 00 00
	00 00		 mov	 DWORD PTR fs:0, ecx
  0005b	59		 pop	 ecx
  0005c	5f		 pop	 edi
  0005d	5e		 pop	 esi
  0005e	5b		 pop	 ebx
  0005f	81 c4 d8 00 00
	00		 add	 esp, 216		; 000000d8H
  00065	3b ec		 cmp	 ebp, esp
  00067	e8 00 00 00 00	 call	 __RTC_CheckEsp
  0006c	8b e5		 mov	 esp, ebp
  0006e	5d		 pop	 ebp
  0006f	c3		 ret	 0
_TEXT	ENDS
;	COMDAT text$x
text$x	SEGMENT
__ehhandler$?data@?$basic_string@DU?$char_traits@D@std@@V?$allocator@D@2@@std@@QBEPBDXZ:
  00000	8b 54 24 08	 mov	 edx, DWORD PTR [esp+8]
  00004	8d 42 0c	 lea	 eax, DWORD PTR [edx+12]
  00007	8b 8a 24 ff ff
	ff		 mov	 ecx, DWORD PTR [edx-220]
  0000d	33 c8		 xor	 ecx, eax
  0000f	e8 00 00 00 00	 call	 @__security_check_cookie@4
  00014	b8 00 00 00 00	 mov	 eax, OFFSET __ehfuncinfo$?data@?$basic_string@DU?$char_traits@D@std@@V?$allocator@D@2@@std@@QBEPBDXZ
  00019	e9 00 00 00 00	 jmp	 ___CxxFrameHandler3
text$x	ENDS
?data@?$basic_string@DU?$char_traits@D@std@@V?$allocator@D@2@@std@@QBEPBDXZ ENDP ; std::basic_string<char,std::char_traits<char>,std::allocator<char> >::data
; Function compile flags: /Odtp /RTCsu /ZI
;	COMDAT ?push_back@?$basic_string@DU?$char_traits@D@std@@V?$allocator@D@2@@std@@QAEXD@Z
_TEXT	SEGMENT
$T1 = -257						; size = 1
$T2 = -245						; size = 1
__Ptr$3 = -44						; size = 4
__Old_size$ = -32					; size = 4
__My_data$ = -20					; size = 4
_this$ = -8						; size = 4
__Ch$ = 8						; size = 1
?push_back@?$basic_string@DU?$char_traits@D@std@@V?$allocator@D@2@@std@@QAEXD@Z PROC ; std::basic_string<char,std::char_traits<char>,std::allocator<char> >::push_back, COMDAT
; _this$ = ecx
; File c:\program files (x86)\microsoft visual studio\2017\community\vc\tools\msvc\14.13.26128\include\xstring
; Line 3168
  00000	55		 push	 ebp
  00001	8b ec		 mov	 ebp, esp
  00003	81 ec 08 01 00
	00		 sub	 esp, 264		; 00000108H
  00009	53		 push	 ebx
  0000a	56		 push	 esi
  0000b	57		 push	 edi
  0000c	51		 push	 ecx
  0000d	8d bd f8 fe ff
	ff		 lea	 edi, DWORD PTR [ebp-264]
  00013	b9 42 00 00 00	 mov	 ecx, 66			; 00000042H
  00018	b8 cc cc cc cc	 mov	 eax, -858993460		; ccccccccH
  0001d	f3 ab		 rep stosd
  0001f	59		 pop	 ecx
  00020	89 4d f8	 mov	 DWORD PTR _this$[ebp], ecx
; Line 3169
  00023	8b 4d f8	 mov	 ecx, DWORD PTR _this$[ebp]
  00026	e8 00 00 00 00	 call	 ?_Get_data@?$_String_alloc@U?$_String_base_types@DV?$allocator@D@std@@@std@@@std@@QAEAAV?$_String_val@U?$_Simple_types@D@std@@@2@XZ ; std::_String_alloc<std::_String_base_types<char,std::allocator<char> > >::_Get_data
  0002b	89 45 ec	 mov	 DWORD PTR __My_data$[ebp], eax
; Line 3170
  0002e	8b 45 ec	 mov	 eax, DWORD PTR __My_data$[ebp]
  00031	8b 48 14	 mov	 ecx, DWORD PTR [eax+20]
  00034	89 4d e0	 mov	 DWORD PTR __Old_size$[ebp], ecx
; Line 3171
  00037	8b 45 ec	 mov	 eax, DWORD PTR __My_data$[ebp]
  0003a	8b 4d e0	 mov	 ecx, DWORD PTR __Old_size$[ebp]
  0003d	3b 48 18	 cmp	 ecx, DWORD PTR [eax+24]
  00040	73 4d		 jae	 SHORT $LN2@push_back
; Line 3173
  00042	8b 45 e0	 mov	 eax, DWORD PTR __Old_size$[ebp]
  00045	83 c0 01	 add	 eax, 1
  00048	8b 4d ec	 mov	 ecx, DWORD PTR __My_data$[ebp]
  0004b	89 41 14	 mov	 DWORD PTR [ecx+20], eax
; Line 3174
  0004e	8b 4d ec	 mov	 ecx, DWORD PTR __My_data$[ebp]
  00051	e8 00 00 00 00	 call	 ?_Myptr@?$_String_val@U?$_Simple_types@D@std@@@std@@QAEPADXZ ; std::_String_val<std::_Simple_types<char> >::_Myptr
  00056	89 45 d4	 mov	 DWORD PTR __Ptr$3[ebp], eax
; Line 3175
  00059	8d 45 08	 lea	 eax, DWORD PTR __Ch$[ebp]
  0005c	50		 push	 eax
  0005d	8b 4d d4	 mov	 ecx, DWORD PTR __Ptr$3[ebp]
  00060	03 4d e0	 add	 ecx, DWORD PTR __Old_size$[ebp]
  00063	51		 push	 ecx
  00064	e8 00 00 00 00	 call	 ?assign@?$char_traits@D@std@@SAXAADABD@Z ; std::char_traits<char>::assign
  00069	83 c4 08	 add	 esp, 8
; Line 3176
  0006c	c6 85 0b ff ff
	ff 00		 mov	 BYTE PTR $T2[ebp], 0
  00073	8d 85 0b ff ff
	ff		 lea	 eax, DWORD PTR $T2[ebp]
  00079	50		 push	 eax
  0007a	8b 4d e0	 mov	 ecx, DWORD PTR __Old_size$[ebp]
  0007d	8b 55 d4	 mov	 edx, DWORD PTR __Ptr$3[ebp]
  00080	8d 44 0a 01	 lea	 eax, DWORD PTR [edx+ecx+1]
  00084	50		 push	 eax
  00085	e8 00 00 00 00	 call	 ?assign@?$char_traits@D@std@@SAXAADABD@Z ; std::char_traits<char>::assign
  0008a	83 c4 08	 add	 esp, 8
; Line 3177
  0008d	eb 1f		 jmp	 SHORT $LN1@push_back
$LN2@push_back:
; Line 3180
  0008f	33 c0		 xor	 eax, eax
  00091	88 85 ff fe ff
	ff		 mov	 BYTE PTR $T1[ebp], al
  00097	0f b6 4d 08	 movzx	 ecx, BYTE PTR __Ch$[ebp]
  0009b	51		 push	 ecx
  0009c	0f b6 95 ff fe
	ff ff		 movzx	 edx, BYTE PTR $T1[ebp]
  000a3	52		 push	 edx
  000a4	6a 01		 push	 1
  000a6	8b 4d f8	 mov	 ecx, DWORD PTR _this$[ebp]
  000a9	e8 00 00 00 00	 call	 ??$_Reallocate_grow_by@V<lambda_15711c68e099a15a58f4d77303cb286d>@@D@?$basic_string@DU?$char_traits@D@std@@V?$allocator@D@2@@std@@QAEAAV01@IV<lambda_15711c68e099a15a58f4d77303cb286d>@@D@Z ; std::basic_string<char,std::char_traits<char>,std::allocator<char> >::_Reallocate_grow_by<<lambda_15711c68e099a15a58f4d77303cb286d>,char>
$LN1@push_back:
; Line 3187
  000ae	5f		 pop	 edi
  000af	5e		 pop	 esi
  000b0	5b		 pop	 ebx
  000b1	81 c4 08 01 00
	00		 add	 esp, 264		; 00000108H
  000b7	3b ec		 cmp	 ebp, esp
  000b9	e8 00 00 00 00	 call	 __RTC_CheckEsp
  000be	8b e5		 mov	 esp, ebp
  000c0	5d		 pop	 ebp
  000c1	c2 04 00	 ret	 4
?push_back@?$basic_string@DU?$char_traits@D@std@@V?$allocator@D@2@@std@@QAEXD@Z ENDP ; std::basic_string<char,std::char_traits<char>,std::allocator<char> >::push_back
_TEXT	ENDS
; Function compile flags: /Odtp /RTCsu /ZI
;	COMDAT ??Y?$basic_string@DU?$char_traits@D@std@@V?$allocator@D@2@@std@@QAEAAV01@D@Z
_TEXT	SEGMENT
_this$ = -8						; size = 4
__Ch$ = 8						; size = 1
??Y?$basic_string@DU?$char_traits@D@std@@V?$allocator@D@2@@std@@QAEAAV01@D@Z PROC ; std::basic_string<char,std::char_traits<char>,std::allocator<char> >::operator+=, COMDAT
; _this$ = ecx
; File c:\program files (x86)\microsoft visual studio\2017\community\vc\tools\msvc\14.13.26128\include\xstring
; Line 2492
  00000	55		 push	 ebp
  00001	8b ec		 mov	 ebp, esp
  00003	81 ec cc 00 00
	00		 sub	 esp, 204		; 000000ccH
  00009	53		 push	 ebx
  0000a	56		 push	 esi
  0000b	57		 push	 edi
  0000c	51		 push	 ecx
  0000d	8d bd 34 ff ff
	ff		 lea	 edi, DWORD PTR [ebp-204]
  00013	b9 33 00 00 00	 mov	 ecx, 51			; 00000033H
  00018	b8 cc cc cc cc	 mov	 eax, -858993460		; ccccccccH
  0001d	f3 ab		 rep stosd
  0001f	59		 pop	 ecx
  00020	89 4d f8	 mov	 DWORD PTR _this$[ebp], ecx
; Line 2493
  00023	0f b6 45 08	 movzx	 eax, BYTE PTR __Ch$[ebp]
  00027	50		 push	 eax
  00028	8b 4d f8	 mov	 ecx, DWORD PTR _this$[ebp]
  0002b	e8 00 00 00 00	 call	 ?push_back@?$basic_string@DU?$char_traits@D@std@@V?$allocator@D@2@@std@@QAEXD@Z ; std::basic_string<char,std::char_traits<char>,std::allocator<char> >::push_back
; Line 2494
  00030	8b 45 f8	 mov	 eax, DWORD PTR _this$[ebp]
; Line 2495
  00033	5f		 pop	 edi
  00034	5e		 pop	 esi
  00035	5b		 pop	 ebx
  00036	81 c4 cc 00 00
	00		 add	 esp, 204		; 000000ccH
  0003c	3b ec		 cmp	 ebp, esp
  0003e	e8 00 00 00 00	 call	 __RTC_CheckEsp
  00043	8b e5		 mov	 esp, ebp
  00045	5d		 pop	 ebp
  00046	c2 04 00	 ret	 4
??Y?$basic_string@DU?$char_traits@D@std@@V?$allocator@D@2@@std@@QAEAAV01@D@Z ENDP ; std::basic_string<char,std::char_traits<char>,std::allocator<char> >::operator+=
_TEXT	ENDS
; Function compile flags: /Odtp /RTCsu /ZI
;	COMDAT ??1?$basic_string@DU?$char_traits@D@std@@V?$allocator@D@2@@std@@QAE@XZ
_TEXT	SEGMENT
_this$ = -20						; size = 4
__$EHRec$ = -12						; size = 12
??1?$basic_string@DU?$char_traits@D@std@@V?$allocator@D@2@@std@@QAE@XZ PROC ; std::basic_string<char,std::char_traits<char>,std::allocator<char> >::~basic_string<char,std::char_traits<char>,std::allocator<char> >, COMDAT
; _this$ = ecx
; File c:\program files (x86)\microsoft visual studio\2017\community\vc\tools\msvc\14.13.26128\include\xstring
; Line 2424
  00000	55		 push	 ebp
  00001	8b ec		 mov	 ebp, esp
  00003	6a ff		 push	 -1
  00005	68 00 00 00 00	 push	 __ehhandler$??1?$basic_string@DU?$char_traits@D@std@@V?$allocator@D@2@@std@@QAE@XZ
  0000a	64 a1 00 00 00
	00		 mov	 eax, DWORD PTR fs:0
  00010	50		 push	 eax
  00011	81 ec cc 00 00
	00		 sub	 esp, 204		; 000000ccH
  00017	53		 push	 ebx
  00018	56		 push	 esi
  00019	57		 push	 edi
  0001a	51		 push	 ecx
  0001b	8d bd 28 ff ff
	ff		 lea	 edi, DWORD PTR [ebp-216]
  00021	b9 33 00 00 00	 mov	 ecx, 51			; 00000033H
  00026	b8 cc cc cc cc	 mov	 eax, -858993460		; ccccccccH
  0002b	f3 ab		 rep stosd
  0002d	59		 pop	 ecx
  0002e	a1 00 00 00 00	 mov	 eax, DWORD PTR ___security_cookie
  00033	33 c5		 xor	 eax, ebp
  00035	50		 push	 eax
  00036	8d 45 f4	 lea	 eax, DWORD PTR __$EHRec$[ebp]
  00039	64 a3 00 00 00
	00		 mov	 DWORD PTR fs:0, eax
  0003f	89 4d ec	 mov	 DWORD PTR _this$[ebp], ecx
; Line 2425
  00042	8b 4d ec	 mov	 ecx, DWORD PTR _this$[ebp]
  00045	e8 00 00 00 00	 call	 ?_Tidy_deallocate@?$basic_string@DU?$char_traits@D@std@@V?$allocator@D@2@@std@@QAEXXZ ; std::basic_string<char,std::char_traits<char>,std::allocator<char> >::_Tidy_deallocate
; Line 2426
  0004a	8b 4d ec	 mov	 ecx, DWORD PTR _this$[ebp]
  0004d	e8 00 00 00 00	 call	 ??1?$_String_alloc@U?$_String_base_types@DV?$allocator@D@std@@@std@@@std@@QAE@XZ ; std::_String_alloc<std::_String_base_types<char,std::allocator<char> > >::~_String_alloc<std::_String_base_types<char,std::allocator<char> > >
  00052	8b 4d f4	 mov	 ecx, DWORD PTR __$EHRec$[ebp]
  00055	64 89 0d 00 00
	00 00		 mov	 DWORD PTR fs:0, ecx
  0005c	59		 pop	 ecx
  0005d	5f		 pop	 edi
  0005e	5e		 pop	 esi
  0005f	5b		 pop	 ebx
  00060	81 c4 d8 00 00
	00		 add	 esp, 216		; 000000d8H
  00066	3b ec		 cmp	 ebp, esp
  00068	e8 00 00 00 00	 call	 __RTC_CheckEsp
  0006d	8b e5		 mov	 esp, ebp
  0006f	5d		 pop	 ebp
  00070	c3		 ret	 0
_TEXT	ENDS
;	COMDAT text$x
text$x	SEGMENT
__ehhandler$??1?$basic_string@DU?$char_traits@D@std@@V?$allocator@D@2@@std@@QAE@XZ:
  00000	8b 54 24 08	 mov	 edx, DWORD PTR [esp+8]
  00004	8d 42 0c	 lea	 eax, DWORD PTR [edx+12]
  00007	8b 8a 24 ff ff
	ff		 mov	 ecx, DWORD PTR [edx-220]
  0000d	33 c8		 xor	 ecx, eax
  0000f	e8 00 00 00 00	 call	 @__security_check_cookie@4
  00014	b8 00 00 00 00	 mov	 eax, OFFSET __ehfuncinfo$??1?$basic_string@DU?$char_traits@D@std@@V?$allocator@D@2@@std@@QAE@XZ
  00019	e9 00 00 00 00	 jmp	 ___CxxFrameHandler3
text$x	ENDS
??1?$basic_string@DU?$char_traits@D@std@@V?$allocator@D@2@@std@@QAE@XZ ENDP ; std::basic_string<char,std::char_traits<char>,std::allocator<char> >::~basic_string<char,std::char_traits<char>,std::allocator<char> >
; Function compile flags: /Odtp /RTCsu /ZI
;	COMDAT ?_Assign_rv_contents_with_alloc_always_equal@?$basic_string@DU?$char_traits@D@std@@V?$allocator@D@2@@std@@QAEX$$QAV12@U?$integral_constant@_N$00@2@@Z
_TEXT	SEGMENT
__Right_data_mem$ = -56					; size = 4
__My_data_mem$ = -44					; size = 4
__Right_data$ = -32					; size = 4
_this$ = -20						; size = 4
__$EHRec$ = -12						; size = 12
__Right$ = 8						; size = 4
___formal$ = 12						; size = 1
?_Assign_rv_contents_with_alloc_always_equal@?$basic_string@DU?$char_traits@D@std@@V?$allocator@D@2@@std@@QAEX$$QAV12@U?$integral_constant@_N$00@2@@Z PROC ; std::basic_string<char,std::char_traits<char>,std::allocator<char> >::_Assign_rv_contents_with_alloc_always_equal, COMDAT
; _this$ = ecx
; File c:\program files (x86)\microsoft visual studio\2017\community\vc\tools\msvc\14.13.26128\include\xstring
; Line 2310
  00000	55		 push	 ebp
  00001	8b ec		 mov	 ebp, esp
  00003	6a ff		 push	 -1
  00005	68 00 00 00 00	 push	 __ehhandler$?_Assign_rv_contents_with_alloc_always_equal@?$basic_string@DU?$char_traits@D@std@@V?$allocator@D@2@@std@@QAEX$$QAV12@U?$integral_constant@_N$00@2@@Z
  0000a	64 a1 00 00 00
	00		 mov	 eax, DWORD PTR fs:0
  00010	50		 push	 eax
  00011	81 ec f0 00 00
	00		 sub	 esp, 240		; 000000f0H
  00017	53		 push	 ebx
  00018	56		 push	 esi
  00019	57		 push	 edi
  0001a	51		 push	 ecx
  0001b	8d bd 04 ff ff
	ff		 lea	 edi, DWORD PTR [ebp-252]
  00021	b9 3c 00 00 00	 mov	 ecx, 60			; 0000003cH
  00026	b8 cc cc cc cc	 mov	 eax, -858993460		; ccccccccH
  0002b	f3 ab		 rep stosd
  0002d	59		 pop	 ecx
  0002e	a1 00 00 00 00	 mov	 eax, DWORD PTR ___security_cookie
  00033	33 c5		 xor	 eax, ebp
  00035	50		 push	 eax
  00036	8d 45 f4	 lea	 eax, DWORD PTR __$EHRec$[ebp]
  00039	64 a3 00 00 00
	00		 mov	 DWORD PTR fs:0, eax
  0003f	89 4d ec	 mov	 DWORD PTR _this$[ebp], ecx
; Line 2314
  00042	8b 4d 08	 mov	 ecx, DWORD PTR __Right$[ebp]
  00045	e8 00 00 00 00	 call	 ?_Get_data@?$_String_alloc@U?$_String_base_types@DV?$allocator@D@std@@@std@@@std@@QAEAAV?$_String_val@U?$_Simple_types@D@std@@@2@XZ ; std::_String_alloc<std::_String_base_types<char,std::allocator<char> > >::_Get_data
  0004a	89 45 e0	 mov	 DWORD PTR __Right_data$[ebp], eax
; Line 2317
  0004d	8b 4d e0	 mov	 ecx, DWORD PTR __Right_data$[ebp]
  00050	e8 00 00 00 00	 call	 ?_Large_string_engaged@?$_String_val@U?$_Simple_types@D@std@@@std@@QBE_NXZ ; std::_String_val<std::_Simple_types<char> >::_Large_string_engaged
  00055	0f b6 c0	 movzx	 eax, al
  00058	85 c0		 test	 eax, eax
  0005a	74 0e		 je	 SHORT $LN2@Assign_rv_
; Line 2319
  0005c	8b 45 08	 mov	 eax, DWORD PTR __Right$[ebp]
  0005f	50		 push	 eax
  00060	8b 4d ec	 mov	 ecx, DWORD PTR _this$[ebp]
  00063	e8 00 00 00 00	 call	 ?_Swap_all@?$_String_alloc@U?$_String_base_types@DV?$allocator@D@std@@@std@@@std@@QAEXAAV12@@Z ; std::_String_alloc<std::_String_base_types<char,std::allocator<char> > >::_Swap_all
; Line 2321
  00068	eb 08		 jmp	 SHORT $LN3@Assign_rv_
$LN2@Assign_rv_:
; Line 2323
  0006a	8b 4d 08	 mov	 ecx, DWORD PTR __Right$[ebp]
  0006d	e8 00 00 00 00	 call	 ?_Orphan_all@?$_String_alloc@U?$_String_base_types@DV?$allocator@D@std@@@std@@@std@@QAEXXZ ; std::_String_alloc<std::_String_base_types<char,std::allocator<char> > >::_Orphan_all
$LN3@Assign_rv_:
; Line 2328
  00072	8b 4d ec	 mov	 ecx, DWORD PTR _this$[ebp]
  00075	e8 00 00 00 00	 call	 ?_Get_data@?$_String_alloc@U?$_String_base_types@DV?$allocator@D@std@@@std@@@std@@QAEAAV?$_String_val@U?$_Simple_types@D@std@@@2@XZ ; std::_String_alloc<std::_String_base_types<char,std::allocator<char> > >::_Get_data
  0007a	50		 push	 eax
  0007b	e8 00 00 00 00	 call	 ??$addressof@V?$_String_val@U?$_Simple_types@D@std@@@std@@@std@@YAPAV?$_String_val@U?$_Simple_types@D@std@@@0@AAV10@@Z ; std::addressof<std::_String_val<std::_Simple_types<char> > >
  00080	83 c4 04	 add	 esp, 4
  00083	83 c0 04	 add	 eax, 4
  00086	89 45 d4	 mov	 DWORD PTR __My_data_mem$[ebp], eax
; Line 2330
  00089	8b 45 e0	 mov	 eax, DWORD PTR __Right_data$[ebp]
  0008c	50		 push	 eax
  0008d	e8 00 00 00 00	 call	 ??$addressof@V?$_String_val@U?$_Simple_types@D@std@@@std@@@std@@YAPAV?$_String_val@U?$_Simple_types@D@std@@@0@AAV10@@Z ; std::addressof<std::_String_val<std::_Simple_types<char> > >
  00092	83 c4 04	 add	 esp, 4
  00095	83 c0 04	 add	 eax, 4
  00098	89 45 c8	 mov	 DWORD PTR __Right_data_mem$[ebp], eax
; Line 2331
  0009b	6a 18		 push	 24			; 00000018H
  0009d	8b 45 c8	 mov	 eax, DWORD PTR __Right_data_mem$[ebp]
  000a0	50		 push	 eax
  000a1	8b 4d d4	 mov	 ecx, DWORD PTR __My_data_mem$[ebp]
  000a4	51		 push	 ecx
  000a5	e8 00 00 00 00	 call	 _memcpy
  000aa	83 c4 0c	 add	 esp, 12			; 0000000cH
; Line 2332
  000ad	8b 4d 08	 mov	 ecx, DWORD PTR __Right$[ebp]
  000b0	e8 00 00 00 00	 call	 ?_Tidy_init@?$basic_string@DU?$char_traits@D@std@@V?$allocator@D@2@@std@@QAEXXZ ; std::basic_string<char,std::char_traits<char>,std::allocator<char> >::_Tidy_init
; Line 2333
  000b5	8b 4d f4	 mov	 ecx, DWORD PTR __$EHRec$[ebp]
  000b8	64 89 0d 00 00
	00 00		 mov	 DWORD PTR fs:0, ecx
  000bf	59		 pop	 ecx
  000c0	5f		 pop	 edi
  000c1	5e		 pop	 esi
  000c2	5b		 pop	 ebx
  000c3	81 c4 fc 00 00
	00		 add	 esp, 252		; 000000fcH
  000c9	3b ec		 cmp	 ebp, esp
  000cb	e8 00 00 00 00	 call	 __RTC_CheckEsp
  000d0	8b e5		 mov	 esp, ebp
  000d2	5d		 pop	 ebp
  000d3	c2 08 00	 ret	 8
_TEXT	ENDS
;	COMDAT text$x
text$x	SEGMENT
__ehhandler$?_Assign_rv_contents_with_alloc_always_equal@?$basic_string@DU?$char_traits@D@std@@V?$allocator@D@2@@std@@QAEX$$QAV12@U?$integral_constant@_N$00@2@@Z:
  00000	8b 54 24 08	 mov	 edx, DWORD PTR [esp+8]
  00004	8d 42 0c	 lea	 eax, DWORD PTR [edx+12]
  00007	8b 8a 00 ff ff
	ff		 mov	 ecx, DWORD PTR [edx-256]
  0000d	33 c8		 xor	 ecx, eax
  0000f	e8 00 00 00 00	 call	 @__security_check_cookie@4
  00014	b8 00 00 00 00	 mov	 eax, OFFSET __ehfuncinfo$?_Assign_rv_contents_with_alloc_always_equal@?$basic_string@DU?$char_traits@D@std@@V?$allocator@D@2@@std@@QAEX$$QAV12@U?$integral_constant@_N$00@2@@Z
  00019	e9 00 00 00 00	 jmp	 ___CxxFrameHandler3
text$x	ENDS
?_Assign_rv_contents_with_alloc_always_equal@?$basic_string@DU?$char_traits@D@std@@V?$allocator@D@2@@std@@QAEX$$QAV12@U?$integral_constant@_N$00@2@@Z ENDP ; std::basic_string<char,std::char_traits<char>,std::allocator<char> >::_Assign_rv_contents_with_alloc_always_equal
; Function compile flags: /Odtp /RTCsu /ZI
;	COMDAT ??0?$basic_string@DU?$char_traits@D@std@@V?$allocator@D@2@@std@@QAE@$$QAV01@@Z
_TEXT	SEGMENT
$T2 = -221						; size = 1
_this$ = -20						; size = 4
__$EHRec$ = -12						; size = 12
__Right$ = 8						; size = 4
??0?$basic_string@DU?$char_traits@D@std@@V?$allocator@D@2@@std@@QAE@$$QAV01@@Z PROC ; std::basic_string<char,std::char_traits<char>,std::allocator<char> >::basic_string<char,std::char_traits<char>,std::allocator<char> >, COMDAT
; _this$ = ecx
; File c:\program files (x86)\microsoft visual studio\2017\community\vc\tools\msvc\14.13.26128\include\xstring
; Line 2237
  00000	55		 push	 ebp
  00001	8b ec		 mov	 ebp, esp
  00003	6a ff		 push	 -1
  00005	68 00 00 00 00	 push	 __ehhandler$??0?$basic_string@DU?$char_traits@D@std@@V?$allocator@D@2@@std@@QAE@$$QAV01@@Z
  0000a	64 a1 00 00 00
	00		 mov	 eax, DWORD PTR fs:0
  00010	50		 push	 eax
  00011	81 ec d8 00 00
	00		 sub	 esp, 216		; 000000d8H
  00017	53		 push	 ebx
  00018	56		 push	 esi
  00019	57		 push	 edi
  0001a	51		 push	 ecx
  0001b	8d bd 1c ff ff
	ff		 lea	 edi, DWORD PTR [ebp-228]
  00021	b9 36 00 00 00	 mov	 ecx, 54			; 00000036H
  00026	b8 cc cc cc cc	 mov	 eax, -858993460		; ccccccccH
  0002b	f3 ab		 rep stosd
  0002d	59		 pop	 ecx
  0002e	a1 00 00 00 00	 mov	 eax, DWORD PTR ___security_cookie
  00033	33 c5		 xor	 eax, ebp
  00035	50		 push	 eax
  00036	8d 45 f4	 lea	 eax, DWORD PTR __$EHRec$[ebp]
  00039	64 a3 00 00 00
	00		 mov	 DWORD PTR fs:0, eax
  0003f	89 4d ec	 mov	 DWORD PTR _this$[ebp], ecx
; Line 2236
  00042	8b 4d 08	 mov	 ecx, DWORD PTR __Right$[ebp]
  00045	e8 00 00 00 00	 call	 ?_Getal@?$_String_alloc@U?$_String_base_types@DV?$allocator@D@std@@@std@@@std@@QAEAAV?$allocator@D@2@XZ ; std::_String_alloc<std::_String_base_types<char,std::allocator<char> > >::_Getal
  0004a	50		 push	 eax
  0004b	e8 00 00 00 00	 call	 ??$move@AAV?$allocator@D@std@@@std@@YA$$QAV?$allocator@D@0@AAV10@@Z ; std::move<std::allocator<char> &>
  00050	83 c4 04	 add	 esp, 4
  00053	50		 push	 eax
  00054	8b 4d ec	 mov	 ecx, DWORD PTR _this$[ebp]
  00057	e8 00 00 00 00	 call	 ??$?0V?$allocator@D@std@@X@?$_String_alloc@U?$_String_base_types@DV?$allocator@D@std@@@std@@@std@@QAE@$$QAV?$allocator@D@1@@Z ; std::_String_alloc<std::_String_base_types<char,std::allocator<char> > >::_String_alloc<std::_String_base_types<char,std::allocator<char> > ><std::allocator<char>,void>
; Line 2238
  0005c	33 c0		 xor	 eax, eax
  0005e	88 85 23 ff ff
	ff		 mov	 BYTE PTR $T2[ebp], al
  00064	0f b6 8d 23 ff
	ff ff		 movzx	 ecx, BYTE PTR $T2[ebp]
  0006b	51		 push	 ecx
  0006c	8b 55 08	 mov	 edx, DWORD PTR __Right$[ebp]
  0006f	52		 push	 edx
  00070	e8 00 00 00 00	 call	 ??$move@AAV?$basic_string@DU?$char_traits@D@std@@V?$allocator@D@2@@std@@@std@@YA$$QAV?$basic_string@DU?$char_traits@D@std@@V?$allocator@D@2@@0@AAV10@@Z ; std::move<std::basic_string<char,std::char_traits<char>,std::allocator<char> > &>
  00075	83 c4 04	 add	 esp, 4
  00078	50		 push	 eax
  00079	8b 4d ec	 mov	 ecx, DWORD PTR _this$[ebp]
  0007c	e8 00 00 00 00	 call	 ?_Assign_rv_contents_with_alloc_always_equal@?$basic_string@DU?$char_traits@D@std@@V?$allocator@D@2@@std@@QAEX$$QAV12@U?$integral_constant@_N$00@2@@Z ; std::basic_string<char,std::char_traits<char>,std::allocator<char> >::_Assign_rv_contents_with_alloc_always_equal
; Line 2239
  00081	8b 45 ec	 mov	 eax, DWORD PTR _this$[ebp]
  00084	8b 4d f4	 mov	 ecx, DWORD PTR __$EHRec$[ebp]
  00087	64 89 0d 00 00
	00 00		 mov	 DWORD PTR fs:0, ecx
  0008e	59		 pop	 ecx
  0008f	5f		 pop	 edi
  00090	5e		 pop	 esi
  00091	5b		 pop	 ebx
  00092	81 c4 e4 00 00
	00		 add	 esp, 228		; 000000e4H
  00098	3b ec		 cmp	 ebp, esp
  0009a	e8 00 00 00 00	 call	 __RTC_CheckEsp
  0009f	8b e5		 mov	 esp, ebp
  000a1	5d		 pop	 ebp
  000a2	c2 04 00	 ret	 4
_TEXT	ENDS
;	COMDAT text$x
text$x	SEGMENT
__ehhandler$??0?$basic_string@DU?$char_traits@D@std@@V?$allocator@D@2@@std@@QAE@$$QAV01@@Z:
  00000	8b 54 24 08	 mov	 edx, DWORD PTR [esp+8]
  00004	8d 42 0c	 lea	 eax, DWORD PTR [edx+12]
  00007	8b 8a 18 ff ff
	ff		 mov	 ecx, DWORD PTR [edx-232]
  0000d	33 c8		 xor	 ecx, eax
  0000f	e8 00 00 00 00	 call	 @__security_check_cookie@4
  00014	b8 00 00 00 00	 mov	 eax, OFFSET __ehfuncinfo$??0?$basic_string@DU?$char_traits@D@std@@V?$allocator@D@2@@std@@QAE@$$QAV01@@Z
  00019	e9 00 00 00 00	 jmp	 ___CxxFrameHandler3
text$x	ENDS
??0?$basic_string@DU?$char_traits@D@std@@V?$allocator@D@2@@std@@QAE@$$QAV01@@Z ENDP ; std::basic_string<char,std::char_traits<char>,std::allocator<char> >::basic_string<char,std::char_traits<char>,std::allocator<char> >
; Function compile flags: /Odtp /RTCsu /ZI
;	COMDAT ??0?$basic_string@DU?$char_traits@D@std@@V?$allocator@D@2@@std@@QAE@XZ
_TEXT	SEGMENT
_this$ = -20						; size = 4
__$EHRec$ = -12						; size = 12
??0?$basic_string@DU?$char_traits@D@std@@V?$allocator@D@2@@std@@QAE@XZ PROC ; std::basic_string<char,std::char_traits<char>,std::allocator<char> >::basic_string<char,std::char_traits<char>,std::allocator<char> >, COMDAT
; _this$ = ecx
; File c:\program files (x86)\microsoft visual studio\2017\community\vc\tools\msvc\14.13.26128\include\xstring
; Line 2119
  00000	55		 push	 ebp
  00001	8b ec		 mov	 ebp, esp
  00003	6a ff		 push	 -1
  00005	68 00 00 00 00	 push	 __ehhandler$??0?$basic_string@DU?$char_traits@D@std@@V?$allocator@D@2@@std@@QAE@XZ
  0000a	64 a1 00 00 00
	00		 mov	 eax, DWORD PTR fs:0
  00010	50		 push	 eax
  00011	81 ec cc 00 00
	00		 sub	 esp, 204		; 000000ccH
  00017	53		 push	 ebx
  00018	56		 push	 esi
  00019	57		 push	 edi
  0001a	51		 push	 ecx
  0001b	8d bd 28 ff ff
	ff		 lea	 edi, DWORD PTR [ebp-216]
  00021	b9 33 00 00 00	 mov	 ecx, 51			; 00000033H
  00026	b8 cc cc cc cc	 mov	 eax, -858993460		; ccccccccH
  0002b	f3 ab		 rep stosd
  0002d	59		 pop	 ecx
  0002e	a1 00 00 00 00	 mov	 eax, DWORD PTR ___security_cookie
  00033	33 c5		 xor	 eax, ebp
  00035	50		 push	 eax
  00036	8d 45 f4	 lea	 eax, DWORD PTR __$EHRec$[ebp]
  00039	64 a3 00 00 00
	00		 mov	 DWORD PTR fs:0, eax
  0003f	89 4d ec	 mov	 DWORD PTR _this$[ebp], ecx
; Line 2118
  00042	8b 4d ec	 mov	 ecx, DWORD PTR _this$[ebp]
  00045	e8 00 00 00 00	 call	 ??0?$_String_alloc@U?$_String_base_types@DV?$allocator@D@std@@@std@@@std@@QAE@XZ ; std::_String_alloc<std::_String_base_types<char,std::allocator<char> > >::_String_alloc<std::_String_base_types<char,std::allocator<char> > >
; Line 2120
  0004a	8b 4d ec	 mov	 ecx, DWORD PTR _this$[ebp]
  0004d	e8 00 00 00 00	 call	 ?_Tidy_init@?$basic_string@DU?$char_traits@D@std@@V?$allocator@D@2@@std@@QAEXXZ ; std::basic_string<char,std::char_traits<char>,std::allocator<char> >::_Tidy_init
; Line 2121
  00052	8b 45 ec	 mov	 eax, DWORD PTR _this$[ebp]
  00055	8b 4d f4	 mov	 ecx, DWORD PTR __$EHRec$[ebp]
  00058	64 89 0d 00 00
	00 00		 mov	 DWORD PTR fs:0, ecx
  0005f	59		 pop	 ecx
  00060	5f		 pop	 edi
  00061	5e		 pop	 esi
  00062	5b		 pop	 ebx
  00063	81 c4 d8 00 00
	00		 add	 esp, 216		; 000000d8H
  00069	3b ec		 cmp	 ebp, esp
  0006b	e8 00 00 00 00	 call	 __RTC_CheckEsp
  00070	8b e5		 mov	 esp, ebp
  00072	5d		 pop	 ebp
  00073	c3		 ret	 0
_TEXT	ENDS
;	COMDAT text$x
text$x	SEGMENT
__ehhandler$??0?$basic_string@DU?$char_traits@D@std@@V?$allocator@D@2@@std@@QAE@XZ:
  00000	8b 54 24 08	 mov	 edx, DWORD PTR [esp+8]
